ARM GAS  C:\Users\hari\AppData\Local\Temp\ccc0gtQ0.s 			page 1


   1              		.syntax unified
   2              		.cpu cortex-m3
   3              		.fpu softvfp
   4              		.eabi_attribute 20, 1
   5              		.eabi_attribute 21, 1
   6              		.eabi_attribute 23, 3
   7              		.eabi_attribute 24, 1
   8              		.eabi_attribute 25, 1
   9              		.eabi_attribute 26, 1
  10              		.eabi_attribute 30, 1
  11              		.eabi_attribute 34, 1
  12              		.eabi_attribute 18, 4
  13              		.thumb
  14              		.file	"LCD_Seg_1.c"
  15              		.text
  16              	.Ltext0:
  17              		.cfi_sections	.debug_frame
  18              		.section	.text.LCD_Seg_1_WriteControlReg,"ax",%progbits
  19              		.align	2
  20              		.thumb
  21              		.thumb_func
  22              		.type	LCD_Seg_1_WriteControlReg, %function
  23              	LCD_Seg_1_WriteControlReg:
  24              	.LFB14:
  25              		.file 1 ".\\Generated_Source\\PSoC5\\LCD_Seg_1.c"
   1:.\Generated_Source\PSoC5/LCD_Seg_1.c **** /*******************************************************************************
   2:.\Generated_Source\PSoC5/LCD_Seg_1.c **** * File Name: LCD_Seg_1.c
   3:.\Generated_Source\PSoC5/LCD_Seg_1.c **** * Version 3.40
   4:.\Generated_Source\PSoC5/LCD_Seg_1.c **** *
   5:.\Generated_Source\PSoC5/LCD_Seg_1.c **** * Description:
   6:.\Generated_Source\PSoC5/LCD_Seg_1.c **** *  This file provides the API source code for the Segment LCD component.
   7:.\Generated_Source\PSoC5/LCD_Seg_1.c **** *
   8:.\Generated_Source\PSoC5/LCD_Seg_1.c **** * Note:
   9:.\Generated_Source\PSoC5/LCD_Seg_1.c **** *
  10:.\Generated_Source\PSoC5/LCD_Seg_1.c **** ********************************************************************************
  11:.\Generated_Source\PSoC5/LCD_Seg_1.c **** * Copyright 2008-2012, Cypress Semiconductor Corporation.  All rights reserved.
  12:.\Generated_Source\PSoC5/LCD_Seg_1.c **** * You may use this file only in accordance with the license, terms, conditions,
  13:.\Generated_Source\PSoC5/LCD_Seg_1.c **** * disclaimers, and limitations in the end user license agreement accompanying
  14:.\Generated_Source\PSoC5/LCD_Seg_1.c **** * the software package with which this file was provided.
  15:.\Generated_Source\PSoC5/LCD_Seg_1.c **** *******************************************************************************/
  16:.\Generated_Source\PSoC5/LCD_Seg_1.c **** 
  17:.\Generated_Source\PSoC5/LCD_Seg_1.c **** #include "LCD_Seg_1.h"
  18:.\Generated_Source\PSoC5/LCD_Seg_1.c **** #include <LCD_Seg_1_Int_Clock.h>
  19:.\Generated_Source\PSoC5/LCD_Seg_1.c **** #include <LCD_Seg_1_Lcd_Dma_dma.h>
  20:.\Generated_Source\PSoC5/LCD_Seg_1.c **** #include <LCD_Seg_1_Frame_Dma_dma.h>
  21:.\Generated_Source\PSoC5/LCD_Seg_1.c **** 
  22:.\Generated_Source\PSoC5/LCD_Seg_1.c **** 
  23:.\Generated_Source\PSoC5/LCD_Seg_1.c **** /* Internal functions */
  24:.\Generated_Source\PSoC5/LCD_Seg_1.c **** static uint8   LCD_Seg_1_DmaConfigure(void) CYREENTRANT;
  25:.\Generated_Source\PSoC5/LCD_Seg_1.c **** static void    LCD_Seg_1_DmaDispose(void) CYREENTRANT;
  26:.\Generated_Source\PSoC5/LCD_Seg_1.c **** static void    LCD_Seg_1_WriteControlReg(uint8 value, uint8 mask) CYREENTRANT;
  27:.\Generated_Source\PSoC5/LCD_Seg_1.c **** 
  28:.\Generated_Source\PSoC5/LCD_Seg_1.c **** /* This section contains look-up tables for
  29:.\Generated_Source\PSoC5/LCD_Seg_1.c **** * different kinds of displays.
  30:.\Generated_Source\PSoC5/LCD_Seg_1.c **** */
  31:.\Generated_Source\PSoC5/LCD_Seg_1.c **** #ifdef LCD_Seg_1_7SEG
  32:.\Generated_Source\PSoC5/LCD_Seg_1.c **** 
ARM GAS  C:\Users\hari\AppData\Local\Temp\ccc0gtQ0.s 			page 2


  33:.\Generated_Source\PSoC5/LCD_Seg_1.c ****   static const uint8 CYCODE LCD_Seg_1_7SegDigits[] = \
  34:.\Generated_Source\PSoC5/LCD_Seg_1.c ****     /*    '0'    '1'    '2'    '3'    '4'    '5'    '6'    '7' */
  35:.\Generated_Source\PSoC5/LCD_Seg_1.c ****         {0x3fu, 0x06u, 0x5bu, 0x4fu, 0x66u, 0x6du, 0x7du, 0x07u, \
  36:.\Generated_Source\PSoC5/LCD_Seg_1.c ****     /*    '8'    '9'    'A'    'B'    'C'    'D'    'E'    'F'   null */
  37:.\Generated_Source\PSoC5/LCD_Seg_1.c ****         0x7fu, 0x6fu, 0x77u, 0x7cu, 0x39u, 0x5eu, 0x79u, 0x71u, 0x00u};
  38:.\Generated_Source\PSoC5/LCD_Seg_1.c **** 
  39:.\Generated_Source\PSoC5/LCD_Seg_1.c **** #endif /* LCD_Seg_1_7SEG */
  40:.\Generated_Source\PSoC5/LCD_Seg_1.c **** 
  41:.\Generated_Source\PSoC5/LCD_Seg_1.c **** #ifdef ALPHANUMERIC
  42:.\Generated_Source\PSoC5/LCD_Seg_1.c **** 
  43:.\Generated_Source\PSoC5/LCD_Seg_1.c ****     #ifdef LCD_Seg_1_14SEG
  44:.\Generated_Source\PSoC5/LCD_Seg_1.c **** 
  45:.\Generated_Source\PSoC5/LCD_Seg_1.c ****         static const uint16 CYCODE LCD_Seg_1_14SegChars[] = {
  46:.\Generated_Source\PSoC5/LCD_Seg_1.c ****         /*------------------------------------------------------------*/
  47:.\Generated_Source\PSoC5/LCD_Seg_1.c ****         /*                           Blank                            */
  48:.\Generated_Source\PSoC5/LCD_Seg_1.c ****         /*------------------------------------------------------------*/
  49:.\Generated_Source\PSoC5/LCD_Seg_1.c ****         0x0000u,0x0000u,0x0000u,0x0000u,0x0000u,0x0000u,0x0000u,0x0000u,
  50:.\Generated_Source\PSoC5/LCD_Seg_1.c ****         0x0000u,0x0000u,0x0000u,0x0000u,0x0000u,0x0000u,0x0000u,0x0000u,
  51:.\Generated_Source\PSoC5/LCD_Seg_1.c ****         0x0000u,0x0000u,0x0000u,0x0000u,0x0000u,0x0000u,0x0000u,0x0000u,
  52:.\Generated_Source\PSoC5/LCD_Seg_1.c ****         0x0000u,0x0000u,0x0000u,0x0000u,0x0000u,0x0000u,0x0000u,0x0000u,
  53:.\Generated_Source\PSoC5/LCD_Seg_1.c ****         /*------------------------------------------------------------*/
  54:.\Generated_Source\PSoC5/LCD_Seg_1.c ****         /*         !       "       #       $       %       &       '  */
  55:.\Generated_Source\PSoC5/LCD_Seg_1.c ****         /*------------------------------------------------------------*/
  56:.\Generated_Source\PSoC5/LCD_Seg_1.c ****         0x0000u,0x0006u,0x0120u,0x3fffu,0x156du,0x2ee4u,0x2a8du,0x0200u,
  57:.\Generated_Source\PSoC5/LCD_Seg_1.c ****         /*------------------------------------------------------------*/
  58:.\Generated_Source\PSoC5/LCD_Seg_1.c ****         /* (       )       *       +       ,       -       .       /  */
  59:.\Generated_Source\PSoC5/LCD_Seg_1.c ****         /*------------------------------------------------------------*/
  60:.\Generated_Source\PSoC5/LCD_Seg_1.c ****         0x0a00u,0x2080u,0x3fc0u,0x1540u,0x2000u,0x0440u,0x1058u,0x2200u,
  61:.\Generated_Source\PSoC5/LCD_Seg_1.c ****         /*------------------------------------------------------------*/
  62:.\Generated_Source\PSoC5/LCD_Seg_1.c ****         /* 0       1       2       3       4       5       6       7  */
  63:.\Generated_Source\PSoC5/LCD_Seg_1.c ****         /*------------------------------------------------------------*/
  64:.\Generated_Source\PSoC5/LCD_Seg_1.c ****         0x223fu,0x0206u,0x045bu,0x040fu,0x0466u,0x0869u,0x047du,0x1201u,
  65:.\Generated_Source\PSoC5/LCD_Seg_1.c ****         /*------------------------------------------------------------*/
  66:.\Generated_Source\PSoC5/LCD_Seg_1.c ****         /* 8       9       :       ;       <       =       >       ?  */
  67:.\Generated_Source\PSoC5/LCD_Seg_1.c ****         /*------------------------------------------------------------*/
  68:.\Generated_Source\PSoC5/LCD_Seg_1.c ****         0x047fu,0x046fu,0x1100u,0x2100u,0x0a00u,0x0448u,0x2080u,0x1423u,
  69:.\Generated_Source\PSoC5/LCD_Seg_1.c ****         /*------------------------------------------------------------*/
  70:.\Generated_Source\PSoC5/LCD_Seg_1.c ****         /* @       A       B       C       D       E       F       G  */
  71:.\Generated_Source\PSoC5/LCD_Seg_1.c ****         /*------------------------------------------------------------*/
  72:.\Generated_Source\PSoC5/LCD_Seg_1.c ****         0x053bu,0x0477u,0x150fu,0x0039u,0x110Fu,0x0079u,0x0071u,0x043du,
  73:.\Generated_Source\PSoC5/LCD_Seg_1.c ****         /*------------------------------------------------------------*/
  74:.\Generated_Source\PSoC5/LCD_Seg_1.c ****         /* H       I       J       K       L       M       N       O  */
  75:.\Generated_Source\PSoC5/LCD_Seg_1.c ****         /*------------------------------------------------------------*/
  76:.\Generated_Source\PSoC5/LCD_Seg_1.c ****         0x0476u,0x1100u,0x001eu,0x0a70u,0x0038u,0x02b6u,0x08b6u,0x003fu,
  77:.\Generated_Source\PSoC5/LCD_Seg_1.c ****         /*------------------------------------------------------------*/
  78:.\Generated_Source\PSoC5/LCD_Seg_1.c ****         /* P       Q       R       S       T       U       V       W  */
  79:.\Generated_Source\PSoC5/LCD_Seg_1.c ****         /*------------------------------------------------------------*/
  80:.\Generated_Source\PSoC5/LCD_Seg_1.c ****         0x0473u,0x083fu,0x0C73u,0x046du,0x1101u,0x003eu,0x2230u,0x2836u,
  81:.\Generated_Source\PSoC5/LCD_Seg_1.c ****         /*------------------------------------------------------------*/
  82:.\Generated_Source\PSoC5/LCD_Seg_1.c ****         /* X       Y       Z       [       \       ]       ^       _  */
  83:.\Generated_Source\PSoC5/LCD_Seg_1.c ****         /*------------------------------------------------------------*/
  84:.\Generated_Source\PSoC5/LCD_Seg_1.c ****         0x2a80u,0x1462u,0x2209u,0x0039u,0x0880u,0x000fu,0x0003u,0x0008u,
  85:.\Generated_Source\PSoC5/LCD_Seg_1.c ****         /*------------------------------------------------------------*/
  86:.\Generated_Source\PSoC5/LCD_Seg_1.c ****         /* @       a       b       c       d       e       f       g  */
  87:.\Generated_Source\PSoC5/LCD_Seg_1.c ****         /*------------------------------------------------------------*/
  88:.\Generated_Source\PSoC5/LCD_Seg_1.c ****         0x053bu,0x0477u,0x150fu,0x0039u,0x110Fu,0x0079u,0x0071u,0x043du,
  89:.\Generated_Source\PSoC5/LCD_Seg_1.c ****         /*------------------------------------------------------------*/
ARM GAS  C:\Users\hari\AppData\Local\Temp\ccc0gtQ0.s 			page 3


  90:.\Generated_Source\PSoC5/LCD_Seg_1.c ****         /* h       i       j       k       l       m       n       o  */
  91:.\Generated_Source\PSoC5/LCD_Seg_1.c ****         /*------------------------------------------------------------*/
  92:.\Generated_Source\PSoC5/LCD_Seg_1.c ****         0x0476u,0x1100u,0x001eu,0x0a70u,0x0038u,0x02b6u,0x08b6u,0x003fu,
  93:.\Generated_Source\PSoC5/LCD_Seg_1.c ****         /*------------------------------------------------------------*/
  94:.\Generated_Source\PSoC5/LCD_Seg_1.c ****         /* p       q       r       s       t       u       v       w  */
  95:.\Generated_Source\PSoC5/LCD_Seg_1.c ****         /*------------------------------------------------------------*/
  96:.\Generated_Source\PSoC5/LCD_Seg_1.c ****         0x0473u,0x083fu,0x0C73u,0x046du,0x1101u,0x003eu,0x2230u,0x2836u,
  97:.\Generated_Source\PSoC5/LCD_Seg_1.c ****         /*------------------------------------------------------------*/
  98:.\Generated_Source\PSoC5/LCD_Seg_1.c ****         /* x       y       z       {       |       }        ~      O  */
  99:.\Generated_Source\PSoC5/LCD_Seg_1.c ****         /*------------------------------------------------------------*/
 100:.\Generated_Source\PSoC5/LCD_Seg_1.c ****         0x2a80u,0x1280u,0x2209u,0x0e00u,0x1100u,0x20C0u,0x0452u,0x003fu};
 101:.\Generated_Source\PSoC5/LCD_Seg_1.c **** 
 102:.\Generated_Source\PSoC5/LCD_Seg_1.c ****     #endif /* LCD_Seg_1_14SEG */
 103:.\Generated_Source\PSoC5/LCD_Seg_1.c **** 
 104:.\Generated_Source\PSoC5/LCD_Seg_1.c ****     #ifdef LCD_Seg_1_16SEG
 105:.\Generated_Source\PSoC5/LCD_Seg_1.c **** 
 106:.\Generated_Source\PSoC5/LCD_Seg_1.c ****         static const uint16 CYCODE LCD_Seg_1_16SegChars[] = {
 107:.\Generated_Source\PSoC5/LCD_Seg_1.c ****         /*------------------------------------------------------------*/
 108:.\Generated_Source\PSoC5/LCD_Seg_1.c ****         /*                           Blank                            */
 109:.\Generated_Source\PSoC5/LCD_Seg_1.c ****         /*------------------------------------------------------------*/
 110:.\Generated_Source\PSoC5/LCD_Seg_1.c ****         0x0000u,0x0000u,0x0000u,0x0000u,0x0000u,0x0000u,0x0000u,0x0000u,
 111:.\Generated_Source\PSoC5/LCD_Seg_1.c ****         0x0000u,0x0000u,0x0000u,0x0000u,0x0000u,0x0000u,0x0000u,0x0000u,
 112:.\Generated_Source\PSoC5/LCD_Seg_1.c ****         0x0000u,0x0000u,0x0000u,0x0000u,0x0000u,0x0000u,0x0000u,0x0000u,
 113:.\Generated_Source\PSoC5/LCD_Seg_1.c ****         0x0000u,0x0000u,0x0000u,0x0000u,0x0000u,0x0000u,0x0000u,0x0000u,
 114:.\Generated_Source\PSoC5/LCD_Seg_1.c ****         /*------------------------------------------------------------*/
 115:.\Generated_Source\PSoC5/LCD_Seg_1.c ****         /*         !       "       #       $       %       &       '  */
 116:.\Generated_Source\PSoC5/LCD_Seg_1.c ****         /*------------------------------------------------------------*/
 117:.\Generated_Source\PSoC5/LCD_Seg_1.c ****         0x0000u,0x000cu,0x0480u,0xffffu,0x55bbu,0xdd99u,0xaa3bu,0x0800u,
 118:.\Generated_Source\PSoC5/LCD_Seg_1.c ****         /*------------------------------------------------------------*/
 119:.\Generated_Source\PSoC5/LCD_Seg_1.c ****         /* (       )       *       +       ,       -       .       /  */
 120:.\Generated_Source\PSoC5/LCD_Seg_1.c ****         /*------------------------------------------------------------*/
 121:.\Generated_Source\PSoC5/LCD_Seg_1.c ****         0x2800u,0x8200u,0xff00u,0x5500u,0x8000u,0x1100u,0x4160u,0x8800u,
 122:.\Generated_Source\PSoC5/LCD_Seg_1.c ****         /*------------------------------------------------------------*/
 123:.\Generated_Source\PSoC5/LCD_Seg_1.c ****         /* 0       1       2       3       4       5       6       7  */
 124:.\Generated_Source\PSoC5/LCD_Seg_1.c ****         /*------------------------------------------------------------*/
 125:.\Generated_Source\PSoC5/LCD_Seg_1.c ****         0x88ffu,0x000cu,0x1177u,0x103fu,0x118cu,0x21b3u,0x11fbu,0x4803u,
 126:.\Generated_Source\PSoC5/LCD_Seg_1.c ****         /*------------------------------------------------------------*/
 127:.\Generated_Source\PSoC5/LCD_Seg_1.c ****         /* 8       9       :       ;       <       =       >       ?  */
 128:.\Generated_Source\PSoC5/LCD_Seg_1.c ****         /*------------------------------------------------------------*/
 129:.\Generated_Source\PSoC5/LCD_Seg_1.c ****         0x11ffu,0x11bfu,0x4400u,0x8400u,0x2800u,0x1130u,0x8200u,0x5087u,
 130:.\Generated_Source\PSoC5/LCD_Seg_1.c ****         /*------------------------------------------------------------*/
 131:.\Generated_Source\PSoC5/LCD_Seg_1.c ****         /* @       A       B       C       D       E       F       G  */
 132:.\Generated_Source\PSoC5/LCD_Seg_1.c ****         /*------------------------------------------------------------*/
 133:.\Generated_Source\PSoC5/LCD_Seg_1.c ****         0x14f7u,0x11cfu,0x543fu,0x00f3u,0x443fu,0x01f3u,0x01c3u,0x10fbu,
 134:.\Generated_Source\PSoC5/LCD_Seg_1.c ****         /*------------------------------------------------------------*/
 135:.\Generated_Source\PSoC5/LCD_Seg_1.c ****         /* H       I       J       K       L       M       N       O  */
 136:.\Generated_Source\PSoC5/LCD_Seg_1.c ****         /*------------------------------------------------------------*/
 137:.\Generated_Source\PSoC5/LCD_Seg_1.c ****         0x11ccu,0x4400u,0x007eu,0x29c0u,0x00f0u,0x0accu,0x22ccu,0x00ffu,
 138:.\Generated_Source\PSoC5/LCD_Seg_1.c ****         /*------------------------------------------------------------*/
 139:.\Generated_Source\PSoC5/LCD_Seg_1.c ****         /* P       Q       R       S       T       U       V       W  */
 140:.\Generated_Source\PSoC5/LCD_Seg_1.c ****         /*------------------------------------------------------------*/
 141:.\Generated_Source\PSoC5/LCD_Seg_1.c ****         0x11c7u,0x20ffu,0x31c7u,0x11bbu,0x4403u,0x00fcu,0x88c0u,0xa0ccu,
 142:.\Generated_Source\PSoC5/LCD_Seg_1.c ****         /*------------------------------------------------------------*/
 143:.\Generated_Source\PSoC5/LCD_Seg_1.c ****         /* X       Y       Z       [       \       ]       ^       _  */
 144:.\Generated_Source\PSoC5/LCD_Seg_1.c ****         /*------------------------------------------------------------*/
 145:.\Generated_Source\PSoC5/LCD_Seg_1.c ****         0xaa00u,0x5184u,0x8833u,0x4412u,0x2200u,0x4421u,0x0006u,0x0030u,
 146:.\Generated_Source\PSoC5/LCD_Seg_1.c ****         /*------------------------------------------------------------*/
ARM GAS  C:\Users\hari\AppData\Local\Temp\ccc0gtQ0.s 			page 4


 147:.\Generated_Source\PSoC5/LCD_Seg_1.c ****         /* @       a       b       c       d       e       f       g  */
 148:.\Generated_Source\PSoC5/LCD_Seg_1.c ****         /*------------------------------------------------------------*/
 149:.\Generated_Source\PSoC5/LCD_Seg_1.c ****         0x14f7u,0x11cfu,0x543fu,0x00f3u,0x443fu,0x01f3u,0x01c3u,0x10fbu,
 150:.\Generated_Source\PSoC5/LCD_Seg_1.c ****         /*------------------------------------------------------------*/
 151:.\Generated_Source\PSoC5/LCD_Seg_1.c ****         /* h       i       j       k       l       m       n       o  */
 152:.\Generated_Source\PSoC5/LCD_Seg_1.c ****         /*------------------------------------------------------------*/
 153:.\Generated_Source\PSoC5/LCD_Seg_1.c ****         0x11ccu,0x4400u,0x007eu,0x29c0u,0x00f0u,0x0accu,0x22ccu,0x00ffu,
 154:.\Generated_Source\PSoC5/LCD_Seg_1.c ****         /*------------------------------------------------------------*/
 155:.\Generated_Source\PSoC5/LCD_Seg_1.c ****         /* p       q       r       s       t       u       v       w  */
 156:.\Generated_Source\PSoC5/LCD_Seg_1.c ****         /*------------------------------------------------------------*/
 157:.\Generated_Source\PSoC5/LCD_Seg_1.c ****         0x11c7u,0x20ffu,0x31c7u,0x11bbu,0x4403u,0x00fcu,0x88c0u,0xa0ccu,
 158:.\Generated_Source\PSoC5/LCD_Seg_1.c ****         /*------------------------------------------------------------*/
 159:.\Generated_Source\PSoC5/LCD_Seg_1.c ****         /* x       y       z       {       |       }        ~         */
 160:.\Generated_Source\PSoC5/LCD_Seg_1.c ****         /*------------------------------------------------------------*/
 161:.\Generated_Source\PSoC5/LCD_Seg_1.c ****         0xaa00u,0x4A00u,0x8833u,0x3800u,0x4400u,0x8300u,0x1144u,0x0000u};
 162:.\Generated_Source\PSoC5/LCD_Seg_1.c **** 
 163:.\Generated_Source\PSoC5/LCD_Seg_1.c ****     #endif /* LCD_Seg_1_16SEG */
 164:.\Generated_Source\PSoC5/LCD_Seg_1.c **** 
 165:.\Generated_Source\PSoC5/LCD_Seg_1.c ****     #ifdef LCD_Seg_1_DOT_MATRIX
 166:.\Generated_Source\PSoC5/LCD_Seg_1.c ****         static const uint8 CYCODE LCD_Seg_1_charDotMatrix[][5u] = {
 167:.\Generated_Source\PSoC5/LCD_Seg_1.c ****         {0x00u, 0x00u, 0x00u, 0x00u, 0x00u}, {0x00u, 0x00u, 0x00u, 0x00u, 0x00u}, {0x00u, 0x00u, 0x
 168:.\Generated_Source\PSoC5/LCD_Seg_1.c ****         {0x00u, 0x00u, 0x00u, 0x00u, 0x00u}, {0x00u, 0x00u, 0x00u, 0x00u, 0x00u}, {0x00u, 0x00u, 0x
 169:.\Generated_Source\PSoC5/LCD_Seg_1.c ****         {0x00u, 0x00u, 0x00u, 0x00u, 0x00u}, {0x00u, 0x00u, 0x00u, 0x00u, 0x00u}, {0x00u, 0x00u, 0x
 170:.\Generated_Source\PSoC5/LCD_Seg_1.c ****         {0x00u, 0x00u, 0x00u, 0x00u, 0x00u}, {0x00u, 0x00u, 0x00u, 0x00u, 0x00u}, {0x00u, 0x00u, 0x
 171:.\Generated_Source\PSoC5/LCD_Seg_1.c ****         {0x00u, 0x00u, 0x00u, 0x00u, 0x00u}, {0x00u, 0x00u, 0x00u, 0x00u, 0x00u}, {0x00u, 0x00u, 0x
 172:.\Generated_Source\PSoC5/LCD_Seg_1.c ****         {0x00u, 0x00u, 0x00u, 0x00u, 0x00u}, {0x3Eu, 0x1Cu, 0x1Cu, 0x08u, 0x08u}, {0x08u, 0x08u, 0x
 173:.\Generated_Source\PSoC5/LCD_Seg_1.c ****         {0x02u, 0x06u, 0x08u, 0x10u, 0x20u}, {0x00u, 0x4Fu, 0x00u, 0x4Fu, 0x00u}, {0x06u, 0x0Fu, 0x
 174:.\Generated_Source\PSoC5/LCD_Seg_1.c ****         {0x48u, 0x56u, 0x55u, 0x35u, 0x09u}, {0x0Cu, 0x0Cu, 0x0Cu, 0x0Cu, 0x0Cu}, {0x10u, 0x38u, 0x
 175:.\Generated_Source\PSoC5/LCD_Seg_1.c ****         {0x04u, 0x02u, 0x7Fu, 0x02u, 0x04u}, {0x10u, 0x20u, 0x7Fu, 0x20u, 0x10u}, {0x7Fu, 0x3Eu, 0x
 176:.\Generated_Source\PSoC5/LCD_Seg_1.c ****         {0x7Fu, 0x08u, 0x1Cu, 0x3Eu, 0x7Fu}, {0x7Fu, 0x08u, 0x2Au, 0x1Cu, 0x08u}, {0x08u, 0x1Cu, 0x
 177:.\Generated_Source\PSoC5/LCD_Seg_1.c ****         {0x02u, 0x0Eu, 0x3Eu, 0x0Eu, 0x02u}, {0x20u, 0x38u, 0x3Eu, 0x38u, 0x20u}, {0x00u, 0x00u, 0x
 178:.\Generated_Source\PSoC5/LCD_Seg_1.c ****         {0x00u, 0x00u, 0x4Fu, 0x00u, 0x00u}, {0x00u, 0x07u, 0x00u, 0x07u, 0x00u}, {0x14u, 0x7Fu, 0x
 179:.\Generated_Source\PSoC5/LCD_Seg_1.c ****         {0x24u, 0x2Au, 0x7Fu, 0x2Au, 0x12u}, {0x23u, 0x13u, 0x08u, 0x64u, 0x62u}, {0x36u, 0x49u, 0x
 180:.\Generated_Source\PSoC5/LCD_Seg_1.c ****         {0x00u, 0x05u, 0x03u, 0x00u, 0x00u}, {0x00u, 0x1Cu, 0x22u, 0x41u, 0x00u}, {0x00u, 0x41u, 0x
 181:.\Generated_Source\PSoC5/LCD_Seg_1.c ****         {0x14u, 0x08u, 0x3Eu, 0x08u, 0x14u}, {0x08u, 0x08u, 0x3Eu, 0x08u, 0x08u}, {0x00u, 0x50u, 0x
 182:.\Generated_Source\PSoC5/LCD_Seg_1.c ****         {0x08u, 0x08u, 0x08u, 0x08u, 0x08u}, {0x00u, 0x60u, 0x60u, 0x00u, 0x00u}, {0x20u, 0x10u, 0x
 183:.\Generated_Source\PSoC5/LCD_Seg_1.c ****         {0x3Eu, 0x51u, 0x49u, 0x45u, 0x3Eu}, {0x00u, 0x42u, 0x7Fu, 0x40u, 0x00u}, {0x42u, 0x61u, 0x
 184:.\Generated_Source\PSoC5/LCD_Seg_1.c ****         {0x21u, 0x41u, 0x45u, 0x4Bu, 0x31u}, {0x18u, 0x14u, 0x12u, 0x7Fu, 0x10u}, {0x27u, 0x45u, 0x
 185:.\Generated_Source\PSoC5/LCD_Seg_1.c ****         {0x3Cu, 0x4Au, 0x49u, 0x49u, 0x30u}, {0x01u, 0x71u, 0x09u, 0x05u, 0x03u}, {0x36u, 0x49u, 0x
 186:.\Generated_Source\PSoC5/LCD_Seg_1.c ****         {0x06u, 0x49u, 0x49u, 0x29u, 0x1Eu}, {0x00u, 0x36u, 0x36u, 0x00u, 0x00u}, {0x00u, 0x56u, 0x
 187:.\Generated_Source\PSoC5/LCD_Seg_1.c ****         {0x08u, 0x14u, 0x22u, 0x41u, 0x00u}, {0x14u, 0x14u, 0x14u, 0x14u, 0x14u}, {0x00u, 0x41u, 0x
 188:.\Generated_Source\PSoC5/LCD_Seg_1.c ****         {0x02u, 0x01u, 0x51u, 0x09u, 0x06u}, {0x32u, 0x49u, 0x79u, 0x41u, 0x3Eu}, {0x7Eu, 0x11u, 0x
 189:.\Generated_Source\PSoC5/LCD_Seg_1.c ****         {0x7Fu, 0x49u, 0x49u, 0x49u, 0x36u}, {0x3Eu, 0x41u, 0x41u, 0x41u, 0x22u}, {0x7Fu, 0x41u, 0x
 190:.\Generated_Source\PSoC5/LCD_Seg_1.c ****         {0x7Fu, 0x49u, 0x49u, 0x49u, 0x41u}, {0x7Fu, 0x09u, 0x09u, 0x09u, 0x01u}, {0x3Eu, 0x41u, 0x
 191:.\Generated_Source\PSoC5/LCD_Seg_1.c ****         {0x7Fu, 0x08u, 0x08u, 0x08u, 0x7Fu}, {0x00u, 0x41u, 0x7Fu, 0x41u, 0x00u}, {0x20u, 0x40u, 0x
 192:.\Generated_Source\PSoC5/LCD_Seg_1.c ****         {0x7Fu, 0x08u, 0x14u, 0x22u, 0x41u}, {0x7Fu, 0x40u, 0x40u, 0x40u, 0x40u}, {0x7Fu, 0x02u, 0x
 193:.\Generated_Source\PSoC5/LCD_Seg_1.c ****         {0x7Fu, 0x04u, 0x08u, 0x10u, 0x7Fu}, {0x3Eu, 0x41u, 0x41u, 0x41u, 0x3Eu}, {0x7Fu, 0x09u, 0x
 194:.\Generated_Source\PSoC5/LCD_Seg_1.c ****         {0x3Eu, 0x41u, 0x51u, 0x21u, 0x5Eu}, {0x7Fu, 0x09u, 0x19u, 0x29u, 0x46u}, {0x46u, 0x49u, 0x
 195:.\Generated_Source\PSoC5/LCD_Seg_1.c ****         {0x01u, 0x01u, 0x7Fu, 0x01u, 0x01u}, {0x3Fu, 0x40u, 0x40u, 0x40u, 0x3Fu}, {0x1Fu, 0x20u, 0x
 196:.\Generated_Source\PSoC5/LCD_Seg_1.c ****         {0x3Fu, 0x40u, 0x38u, 0x40u, 0x3Fu}, {0x63u, 0x14u, 0x08u, 0x14u, 0x63u}, {0x07u, 0x08u, 0x
 197:.\Generated_Source\PSoC5/LCD_Seg_1.c ****         {0x61u, 0x51u, 0x49u, 0x45u, 0x43u}, {0x00u, 0x7Fu, 0x41u, 0x41u, 0x00u}, {0x15u, 0x16u, 0x
 198:.\Generated_Source\PSoC5/LCD_Seg_1.c ****         {0x00u, 0x41u, 0x41u, 0x7Fu, 0x00u}, {0x04u, 0x02u, 0x01u, 0x02u, 0x04u}, {0x40u, 0x40u, 0x
 199:.\Generated_Source\PSoC5/LCD_Seg_1.c ****         {0x00u, 0x01u, 0x02u, 0x04u, 0x00u}, {0x20u, 0x54u, 0x54u, 0x54u, 0x78u}, {0x7Fu, 0x48u, 0x
 200:.\Generated_Source\PSoC5/LCD_Seg_1.c ****         {0x38u, 0x44u, 0x44u, 0x44u, 0x40u}, {0x38u, 0x44u, 0x44u, 0x48u, 0x7Fu}, {0x38u, 0x54u, 0x
 201:.\Generated_Source\PSoC5/LCD_Seg_1.c ****         {0x08u, 0x7Eu, 0x09u, 0x01u, 0x02u}, {0x0Cu, 0x52u, 0x52u, 0x52u, 0x3Eu}, {0x7Fu, 0x08u, 0x
 202:.\Generated_Source\PSoC5/LCD_Seg_1.c ****         {0x00u, 0x44u, 0x7Du, 0x40u, 0x00u}, {0x20u, 0x40u, 0x40u, 0x3Du, 0x00u}, {0x7Fu, 0x10u, 0x
 203:.\Generated_Source\PSoC5/LCD_Seg_1.c ****         {0x00u, 0x41u, 0x7Fu, 0x40u, 0x00u}, {0x7Cu, 0x04u, 0x18u, 0x04u, 0x78u}, {0x7Cu, 0x08u, 0x
ARM GAS  C:\Users\hari\AppData\Local\Temp\ccc0gtQ0.s 			page 5


 204:.\Generated_Source\PSoC5/LCD_Seg_1.c ****         {0x38u, 0x44u, 0x44u, 0x44u, 0x38u}, {0x7Cu, 0x14u, 0x14u, 0x14u, 0x08u}, {0x08u, 0x14u, 0x
 205:.\Generated_Source\PSoC5/LCD_Seg_1.c ****         {0x7Cu, 0x08u, 0x04u, 0x04u, 0x08u}, {0x48u, 0x54u, 0x54u, 0x54u, 0x20u}, {0x04u, 0x3Fu, 0x
 206:.\Generated_Source\PSoC5/LCD_Seg_1.c ****         {0x3Cu, 0x40u, 0x40u, 0x20u, 0x7Cu}, {0x1Cu, 0x20u, 0x40u, 0x20u, 0x1Cu}, {0x3Cu, 0x40u, 0x
 207:.\Generated_Source\PSoC5/LCD_Seg_1.c ****         {0x44u, 0x28u, 0x10u, 0x28u, 0x44u}, {0x0Cu, 0x50u, 0x50u, 0x50u, 0x3Cu}, {0x44u, 0x64u, 0x
 208:.\Generated_Source\PSoC5/LCD_Seg_1.c ****         {0x00u, 0x08u, 0x36u, 0x41u, 0x00u}, {0x00u, 0x00u, 0x7Fu, 0x00u, 0x00u}, {0x00u, 0x41u, 0x
 209:.\Generated_Source\PSoC5/LCD_Seg_1.c ****         {0x00u, 0x00u, 0x00u, 0x00u, 0x00u}, {0x08u, 0x08u, 0x2Au, 0x1Cu, 0x08u}, {0x44u, 0x44u, 0x
 210:.\Generated_Source\PSoC5/LCD_Seg_1.c ****         {0x22u, 0x14u, 0x08u, 0x14u, 0x22u}, {0x1Cu, 0x3Eu, 0x3Eu, 0x3Eu, 0x1Cu}, {0x7Fu, 0x41u, 0x
 211:.\Generated_Source\PSoC5/LCD_Seg_1.c ****         {0x7Fu, 0x5Bu, 0x41u, 0x5Fu, 0x7Fu}, {0x7Fu, 0x4Du, 0x55u, 0x59u, 0x7Fu}, {0x1Du, 0x15u, 0x
 212:.\Generated_Source\PSoC5/LCD_Seg_1.c ****         {0x15u, 0x15u, 0x1Fu, 0x00u, 0x00u}, {0x17u, 0x08u, 0x74u, 0x56u, 0x5Du}, {0x17u, 0x08u, 0x
 213:.\Generated_Source\PSoC5/LCD_Seg_1.c ****         {0x35u, 0x1Fu, 0x28u, 0x34u, 0x7Au}, {0x08u, 0x14u, 0x2Au, 0x14u, 0x22u}, {0x22u, 0x14u, 0x
 214:.\Generated_Source\PSoC5/LCD_Seg_1.c ****         {0x08u, 0x04u, 0x08u, 0x10u, 0x08u}, {0x14u, 0x0Au, 0x14u, 0x28u, 0x14u}, {0x2Au, 0x55u, 0x
 215:.\Generated_Source\PSoC5/LCD_Seg_1.c ****         {0x24u, 0x3Bu, 0x2Au, 0x7Eu, 0x2Au}, {0x40u, 0x3Fu, 0x15u, 0x15u, 0x7Fu}, {0x46u, 0x20u, 0x
 216:.\Generated_Source\PSoC5/LCD_Seg_1.c ****         {0x24u, 0x14u, 0x7Fu, 0x18u, 0x24u}, {0x24u, 0x14u, 0x7Fu, 0x14u, 0x24u}, {0x44u, 0x6Au, 0x
 217:.\Generated_Source\PSoC5/LCD_Seg_1.c ****         {0x40u, 0x44u, 0x7Fu, 0x44u, 0x40u}, {0x7Fu, 0x49u, 0x49u, 0x49u, 0x7Fu}, {0x02u, 0x4Cu, 0x
 218:.\Generated_Source\PSoC5/LCD_Seg_1.c ****         {0x04u, 0x04u, 0x3Cu, 0x04u, 0x44u}, {0x49u, 0x55u, 0x7Fu, 0x55u, 0x49u}, {0x3Au, 0x45u, 0x
 219:.\Generated_Source\PSoC5/LCD_Seg_1.c ****         {0x40u, 0x3Eu, 0x10u, 0x10u, 0x1Eu}, {0x08u, 0x54u, 0x3Eu, 0x15u, 0x08u}, {0x7Fu, 0x7Fu, 0x
 220:.\Generated_Source\PSoC5/LCD_Seg_1.c ****         {0x55u, 0x2Au, 0x55u, 0x2Au, 0x55u}, {0x00u, 0x00u, 0x00u, 0x00u, 0x00u}, {0x70u, 0x50u, 0x
 221:.\Generated_Source\PSoC5/LCD_Seg_1.c ****         {0x00u, 0x00u, 0x0Fu, 0x01u, 0x01u}, {0x40u, 0x40u, 0x70u, 0x00u, 0x00u}, {0x10u, 0x20u, 0x
 222:.\Generated_Source\PSoC5/LCD_Seg_1.c ****         {0x00u, 0x18u, 0x18u, 0x00u, 0x00u}, {0x0Au, 0x0Au, 0x4Au, 0x2Au, 0x1Eu}, {0x04u, 0x44u, 0x
 223:.\Generated_Source\PSoC5/LCD_Seg_1.c ****         {0x20u, 0x10u, 0x78u, 0x04u, 0x00u}, {0x18u, 0x08u, 0x4Cu, 0x48u, 0x38u}, {0x48u, 0x48u, 0x
 224:.\Generated_Source\PSoC5/LCD_Seg_1.c ****         {0x48u, 0x28u, 0x18u, 0x78u, 0x08u}, {0x08u, 0x7Cu, 0x08u, 0x28u, 0x18u}, {0x40u, 0x48u, 0x
 225:.\Generated_Source\PSoC5/LCD_Seg_1.c ****         {0x54u, 0x54u, 0x54u, 0x7Cu, 0x00u}, {0x18u, 0x00u, 0x58u, 0x40u, 0x38u}, {0x08u, 0x08u, 0x
 226:.\Generated_Source\PSoC5/LCD_Seg_1.c ****         {0x01u, 0x41u, 0x3Du, 0x09u, 0x07u}, {0x10u, 0x08u, 0x78u, 0x02u, 0x01u}, {0x06u, 0x02u, 0x
 227:.\Generated_Source\PSoC5/LCD_Seg_1.c ****         {0x42u, 0x42u, 0x7Eu, 0x42u, 0x42u}, {0x22u, 0x12u, 0x0Au, 0x7Fu, 0x02u}, {0x42u, 0x3Fu, 0x
 228:.\Generated_Source\PSoC5/LCD_Seg_1.c ****         {0x0Au, 0x0Au, 0x7Fu, 0x0Au, 0x0Au}, {0x08u, 0x46u, 0x42u, 0x22u, 0x1Eu}, {0x04u, 0x03u, 0x
 229:.\Generated_Source\PSoC5/LCD_Seg_1.c ****         {0x42u, 0x42u, 0x42u, 0x42u, 0x7Eu}, {0x02u, 0x4Fu, 0x22u, 0x1Fu, 0x02u}, {0x4Au, 0x4Au, 0x
 230:.\Generated_Source\PSoC5/LCD_Seg_1.c ****         {0x42u, 0x22u, 0x12u, 0x2Au, 0x46u}, {0x02u, 0x3Fu, 0x42u, 0x4Au, 0x46u}, {0x06u, 0x48u, 0x
 231:.\Generated_Source\PSoC5/LCD_Seg_1.c ****         {0x08u, 0x46u, 0x4Au, 0x32u, 0x1Eu}, {0x0Au, 0x4Au, 0x3Eu, 0x09u, 0x08u}, {0x0Eu, 0x00u, 0x
 232:.\Generated_Source\PSoC5/LCD_Seg_1.c ****         {0x04u, 0x45u, 0x3Du, 0x05u, 0x04u}, {0x00u, 0x7Fu, 0x08u, 0x10u, 0x00u}, {0x44u, 0x24u, 0x
 233:.\Generated_Source\PSoC5/LCD_Seg_1.c ****         {0x40u, 0x42u, 0x42u, 0x42u, 0x40u}, {0x42u, 0x2Au, 0x12u, 0x2Au, 0x06u}, {0x22u, 0x12u, 0x
 234:.\Generated_Source\PSoC5/LCD_Seg_1.c ****         {0x00u, 0x40u, 0x20u, 0x1Fu, 0x00u}, {0x78u, 0x00u, 0x02u, 0x04u, 0x78u}, {0x3Fu, 0x44u, 0x
 235:.\Generated_Source\PSoC5/LCD_Seg_1.c ****         {0x02u, 0x42u, 0x42u, 0x22u, 0x1Eu}, {0x04u, 0x02u, 0x04u, 0x08u, 0x30u}, {0x32u, 0x02u, 0x
 236:.\Generated_Source\PSoC5/LCD_Seg_1.c ****         {0x02u, 0x12u, 0x22u, 0x52u, 0x0Eu}, {0x00u, 0x2Au, 0x2Au, 0x2Au, 0x40u}, {0x38u, 0x24u, 0x
 237:.\Generated_Source\PSoC5/LCD_Seg_1.c ****         {0x40u, 0x28u, 0x10u, 0x28u, 0x06u}, {0x0Au, 0x3Eu, 0x4Au, 0x4Au, 0x4Au}, {0x04u, 0x7Fu, 0x
 238:.\Generated_Source\PSoC5/LCD_Seg_1.c ****         {0x40u, 0x42u, 0x42u, 0x7Eu, 0x40u}, {0x4Au, 0x4Au, 0x4Au, 0x4Au, 0x7Eu}, {0x04u, 0x05u, 0x
 239:.\Generated_Source\PSoC5/LCD_Seg_1.c ****         {0x0Fu, 0x40u, 0x20u, 0x1Fu, 0x00u}, {0x7Cu, 0x00u, 0x7Eu, 0x40u, 0x30u}, {0x7Eu, 0x40u, 0x
 240:.\Generated_Source\PSoC5/LCD_Seg_1.c ****         {0x7Eu, 0x7Eu, 0x7Eu, 0x7Eu, 0x7Eu}, {0x0Eu, 0x02u, 0x42u, 0x22u, 0x1Eu}, {0x42u, 0x42u, 0x
 241:.\Generated_Source\PSoC5/LCD_Seg_1.c ****         {0x02u, 0x04u, 0x01u, 0x02u, 0x00u}, {0x07u, 0x05u, 0x07u, 0x00u, 0x00u}, {0x38u, 0x44u, 0x
 242:.\Generated_Source\PSoC5/LCD_Seg_1.c ****         {0x20u, 0x55u, 0x55u, 0x55u, 0x38u}, {0xFEu, 0x15u, 0x15u, 0x15u, 0x0Au}, {0x28u, 0x54u, 0x
 243:.\Generated_Source\PSoC5/LCD_Seg_1.c ****         {0xFFu, 0x10u, 0x10u, 0x08u, 0x1Fu}, {0x38u, 0x44u, 0x4Cu, 0x54u, 0x24u}, {0xFCu, 0x12u, 0x
 244:.\Generated_Source\PSoC5/LCD_Seg_1.c ****         {0x0Eu, 0xA1u, 0xA1u, 0xA1u, 0x7Fu}, {0x20u, 0x40u, 0x3Cu, 0x04u, 0x04u}, {0x04u, 0x04u, 0x
 245:.\Generated_Source\PSoC5/LCD_Seg_1.c ****         {0x40u, 0x80u, 0x81u, 0x7Fu, 0x00u}, {0x0Au, 0x04u, 0x0Au, 0x00u, 0x00u}, {0x18u, 0x24u, 0x
 246:.\Generated_Source\PSoC5/LCD_Seg_1.c ****         {0x14u, 0x7Fu, 0x54u, 0x40u, 0x40u}, {0x7Cu, 0x0Au, 0x05u, 0x05u, 0x78u}, {0x38u, 0x45u, 0x
 247:.\Generated_Source\PSoC5/LCD_Seg_1.c ****         {0xFFu, 0x12u, 0x11u, 0x11u, 0x0Eu}, {0x0Eu, 0x11u, 0x11u, 0x12u, 0xFFu}, {0x3Cu, 0x4Au, 0x
 248:.\Generated_Source\PSoC5/LCD_Seg_1.c ****         {0x30u, 0x28u, 0x10u, 0x28u, 0x18u}, {0x58u, 0x64u, 0x04u, 0x64u, 0x58u}, {0x3Cu, 0x41u, 0x
 249:.\Generated_Source\PSoC5/LCD_Seg_1.c ****         {0x63u, 0x55u, 0x4Au, 0x41u, 0x41u}, {0x44u, 0x3Cu, 0x04u, 0x7Cu, 0x44u}, {0x45u, 0x29u, 0x
 250:.\Generated_Source\PSoC5/LCD_Seg_1.c ****         {0x0Fu, 0x90u, 0x90u, 0x90u, 0x7Fu}, {0x14u, 0x14u, 0x7Cu, 0x14u, 0x12u}, {0x44u, 0x3Cu, 0x
 251:.\Generated_Source\PSoC5/LCD_Seg_1.c ****         {0x7Cu, 0x14u, 0x1Cu, 0x14u, 0x7Cu}, {0x10u, 0x10u, 0x54u, 0x10u, 0x10u}, {0x00u, 0x00u, 0x
 252:.\Generated_Source\PSoC5/LCD_Seg_1.c ****         {0xFFu, 0xFFu, 0xFFu, 0xFFu, 0xFFu}
 253:.\Generated_Source\PSoC5/LCD_Seg_1.c ****         };
 254:.\Generated_Source\PSoC5/LCD_Seg_1.c ****     #endif /* LCD_Seg_1_DOT_MATRIX */
 255:.\Generated_Source\PSoC5/LCD_Seg_1.c **** #endif /* ALPHANUMERIC */
 256:.\Generated_Source\PSoC5/LCD_Seg_1.c **** 
 257:.\Generated_Source\PSoC5/LCD_Seg_1.c **** uint8 LCD_Seg_1_initVar = 0u;
 258:.\Generated_Source\PSoC5/LCD_Seg_1.c **** 
 259:.\Generated_Source\PSoC5/LCD_Seg_1.c **** /* Stores DMA  channel number used for Frame signal transaction */
 260:.\Generated_Source\PSoC5/LCD_Seg_1.c **** static uint8 LCD_Seg_1_frameChannel;
ARM GAS  C:\Users\hari\AppData\Local\Temp\ccc0gtQ0.s 			page 6


 261:.\Generated_Source\PSoC5/LCD_Seg_1.c **** 
 262:.\Generated_Source\PSoC5/LCD_Seg_1.c **** /* The one and only - Frame Buffer */
 263:.\Generated_Source\PSoC5/LCD_Seg_1.c **** static uint8 LCD_Seg_1_buffer[LCD_Seg_1_BUFFER_LENGTH];
 264:.\Generated_Source\PSoC5/LCD_Seg_1.c **** 
 265:.\Generated_Source\PSoC5/LCD_Seg_1.c **** /* Array of common port TDs */
 266:.\Generated_Source\PSoC5/LCD_Seg_1.c **** static uint8 LCD_Seg_1_lcdTd[LCD_Seg_1_LCD_TD_SIZE * LCD_Seg_1_COMM_NUM];
 267:.\Generated_Source\PSoC5/LCD_Seg_1.c **** 
 268:.\Generated_Source\PSoC5/LCD_Seg_1.c **** /* DMA channel dedicated for SegLCD commons */
 269:.\Generated_Source\PSoC5/LCD_Seg_1.c **** static uint8 LCD_Seg_1_lcdChannel;
 270:.\Generated_Source\PSoC5/LCD_Seg_1.c **** 
 271:.\Generated_Source\PSoC5/LCD_Seg_1.c **** /* Start of customizer generated code */
 272:.\Generated_Source\PSoC5/LCD_Seg_1.c **** 
 273:.\Generated_Source\PSoC5/LCD_Seg_1.c **** static uint16 LCD_Seg_1_commons[5u] = {LCD_Seg_1_Com0, LCD_Seg_1_Com1, LCD_Seg_1_Com2, LCD_Seg_1_Co
 274:.\Generated_Source\PSoC5/LCD_Seg_1.c **** 
 275:.\Generated_Source\PSoC5/LCD_Seg_1.c **** static uint8 LCD_Seg_1_frameTx[2u] = {0x80u, 0x00u};
 276:.\Generated_Source\PSoC5/LCD_Seg_1.c **** static uint8 LCD_Seg_1_frameTd[2u];
 277:.\Generated_Source\PSoC5/LCD_Seg_1.c **** 
 278:.\Generated_Source\PSoC5/LCD_Seg_1.c **** 
 279:.\Generated_Source\PSoC5/LCD_Seg_1.c **** /*******************************************************************************
 280:.\Generated_Source\PSoC5/LCD_Seg_1.c **** * Function Name: LCD_Seg_1_Init
 281:.\Generated_Source\PSoC5/LCD_Seg_1.c **** ********************************************************************************
 282:.\Generated_Source\PSoC5/LCD_Seg_1.c **** *
 283:.\Generated_Source\PSoC5/LCD_Seg_1.c **** * Summary:
 284:.\Generated_Source\PSoC5/LCD_Seg_1.c **** *  Perform initialization of the component. Configures and enables all required
 285:.\Generated_Source\PSoC5/LCD_Seg_1.c **** *  hardware blocks, clears frame buffer.
 286:.\Generated_Source\PSoC5/LCD_Seg_1.c **** *
 287:.\Generated_Source\PSoC5/LCD_Seg_1.c **** * Parameters:
 288:.\Generated_Source\PSoC5/LCD_Seg_1.c **** *  None.
 289:.\Generated_Source\PSoC5/LCD_Seg_1.c **** *
 290:.\Generated_Source\PSoC5/LCD_Seg_1.c **** * Return:
 291:.\Generated_Source\PSoC5/LCD_Seg_1.c **** *  None.
 292:.\Generated_Source\PSoC5/LCD_Seg_1.c **** *
 293:.\Generated_Source\PSoC5/LCD_Seg_1.c **** * Reentrant:
 294:.\Generated_Source\PSoC5/LCD_Seg_1.c **** *  No.
 295:.\Generated_Source\PSoC5/LCD_Seg_1.c **** *
 296:.\Generated_Source\PSoC5/LCD_Seg_1.c **** *******************************************************************************/
 297:.\Generated_Source\PSoC5/LCD_Seg_1.c **** void LCD_Seg_1_Init(void) 
 298:.\Generated_Source\PSoC5/LCD_Seg_1.c **** {
 299:.\Generated_Source\PSoC5/LCD_Seg_1.c ****     /* LCD Timer configuration */
 300:.\Generated_Source\PSoC5/LCD_Seg_1.c ****     #if(LCD_Seg_1_POWER_MODE == LCD_Seg_1__LOW_POWER_ILO)
 301:.\Generated_Source\PSoC5/LCD_Seg_1.c **** 
 302:.\Generated_Source\PSoC5/LCD_Seg_1.c ****         /* Select ILO as a wake up source */
 303:.\Generated_Source\PSoC5/LCD_Seg_1.c ****         LCD_Seg_1_TIMER_CONTROL_REG = 
 304:.\Generated_Source\PSoC5/LCD_Seg_1.c ****             LCD_Seg_1_TIMER_CONTROL_REG & ((uint8) ~LCD_Seg_1_TIMER_CLK_SEL_MASK);
 305:.\Generated_Source\PSoC5/LCD_Seg_1.c ****         /* Set period */
 306:.\Generated_Source\PSoC5/LCD_Seg_1.c ****         LCD_Seg_1_TIMER_CONTROL_REG = (LCD_Seg_1_TIMER_CONTROL_REG & 
 307:.\Generated_Source\PSoC5/LCD_Seg_1.c ****                             ((uint8) ~LCD_Seg_1_TIMER_PERIOD_MASK))
 308:.\Generated_Source\PSoC5/LCD_Seg_1.c ****                             | (uint8) (((uint8) LCD_Seg_1_TIMER_PERIOD) << LCD_Seg_1_TIMER_PERIOD_S
 309:.\Generated_Source\PSoC5/LCD_Seg_1.c **** 
 310:.\Generated_Source\PSoC5/LCD_Seg_1.c ****     #elif(LCD_Seg_1_POWER_MODE == LCD_Seg_1__LOW_POWER_32XTAL)
 311:.\Generated_Source\PSoC5/LCD_Seg_1.c ****         /* One PPS must be enabled to generate 8Khz clock for LCD Timer */
 312:.\Generated_Source\PSoC5/LCD_Seg_1.c ****         LCD_Seg_1_TM_WL_GFG_REG |= LCD_Seg_1_ONE_PPS_EN;
 313:.\Generated_Source\PSoC5/LCD_Seg_1.c ****         /* Select 8K tap from OPPS timer as a wake up source */
 314:.\Generated_Source\PSoC5/LCD_Seg_1.c ****         LCD_Seg_1_TIMER_CONTROL_REG = LCD_Seg_1_TIMER_CONTROL_REG | LCD_Seg_1_TIMER_32XTAL_SEL;
 315:.\Generated_Source\PSoC5/LCD_Seg_1.c ****         /* Set period */
 316:.\Generated_Source\PSoC5/LCD_Seg_1.c ****         LCD_Seg_1_TIMER_CONTROL_REG = (LCD_Seg_1_TIMER_CONTROL_REG &
 317:.\Generated_Source\PSoC5/LCD_Seg_1.c ****                            ((uint8) ~LCD_Seg_1_TIMER_PERIOD_MASK))
ARM GAS  C:\Users\hari\AppData\Local\Temp\ccc0gtQ0.s 			page 7


 318:.\Generated_Source\PSoC5/LCD_Seg_1.c ****                            | (uint8) (((uint8) LCD_Seg_1_TIMER_PERIOD) << LCD_Seg_1_TIMER_PERIOD_SH
 319:.\Generated_Source\PSoC5/LCD_Seg_1.c **** 
 320:.\Generated_Source\PSoC5/LCD_Seg_1.c ****     #endif /* LCD_Seg_1_POWER_MODE == LCD_Seg_1__LOW_POWER_ILO */
 321:.\Generated_Source\PSoC5/LCD_Seg_1.c **** 
 322:.\Generated_Source\PSoC5/LCD_Seg_1.c ****     /* Need to clear display to start normal work */
 323:.\Generated_Source\PSoC5/LCD_Seg_1.c ****     LCD_Seg_1_ClearDisplay();
 324:.\Generated_Source\PSoC5/LCD_Seg_1.c **** 
 325:.\Generated_Source\PSoC5/LCD_Seg_1.c ****     /* Select LCD DAC generated voltage as the source for LCD Driver */
 326:.\Generated_Source\PSoC5/LCD_Seg_1.c ****     LCD_Seg_1_LCDDAC_SWITCH_REG0_REG = LCD_Seg_1_LCDDAC_VOLTAGE_SEL;
 327:.\Generated_Source\PSoC5/LCD_Seg_1.c ****     LCD_Seg_1_LCDDAC_SWITCH_REG1_REG = LCD_Seg_1_LCDDAC_VOLTAGE_SEL;
 328:.\Generated_Source\PSoC5/LCD_Seg_1.c ****     LCD_Seg_1_LCDDAC_SWITCH_REG2_REG = LCD_Seg_1_LCDDAC_VOLTAGE_SEL;
 329:.\Generated_Source\PSoC5/LCD_Seg_1.c ****     LCD_Seg_1_LCDDAC_SWITCH_REG3_REG = LCD_Seg_1_LCDDAC_VOLTAGE_SEL;
 330:.\Generated_Source\PSoC5/LCD_Seg_1.c ****     LCD_Seg_1_LCDDAC_SWITCH_REG4_REG = LCD_Seg_1_LCDDAC_VOLTAGE_SEL;
 331:.\Generated_Source\PSoC5/LCD_Seg_1.c **** 
 332:.\Generated_Source\PSoC5/LCD_Seg_1.c ****     /* Turn on the LCD DAC and set the bias type */
 333:.\Generated_Source\PSoC5/LCD_Seg_1.c ****     LCD_Seg_1_LCDDAC_CONTROL_REG = (LCD_Seg_1_LCDDAC_CONTROL_REG & LCD_Seg_1_BIAS_TYPE_MASK)
 334:.\Generated_Source\PSoC5/LCD_Seg_1.c ****         | LCD_Seg_1_BIAS_TYPE;
 335:.\Generated_Source\PSoC5/LCD_Seg_1.c **** 
 336:.\Generated_Source\PSoC5/LCD_Seg_1.c ****     /* Set the contrast level for LCD with value chosen in the GUI */
 337:.\Generated_Source\PSoC5/LCD_Seg_1.c ****     (void) LCD_Seg_1_SetBias(LCD_Seg_1_BIAS_VOLTAGE);
 338:.\Generated_Source\PSoC5/LCD_Seg_1.c **** 
 339:.\Generated_Source\PSoC5/LCD_Seg_1.c ****     /* Set lower bit of HI Drive strength to LCD Driver control register */
 340:.\Generated_Source\PSoC5/LCD_Seg_1.c ****     LCD_Seg_1_DRIVER_CONTROL_REG |= ((uint8) (((uint8)(((uint8) LCD_Seg_1_HIDRIVE_STRENGTH) << 
 341:.\Generated_Source\PSoC5/LCD_Seg_1.c ****                                 LCD_Seg_1_LCDDRV_MODE0_SHIFT)) & ((uint8) LCD_Seg_1_LCDDRV_MODE0_MA
 342:.\Generated_Source\PSoC5/LCD_Seg_1.c **** 
 343:.\Generated_Source\PSoC5/LCD_Seg_1.c ****     /* Set two high bits of HI Drive strength */
 344:.\Generated_Source\PSoC5/LCD_Seg_1.c ****     LCD_Seg_1_WriteControlReg((uint8) (LCD_Seg_1_HIDRIVE_STRENGTH & LCD_Seg_1_MODE_MASK),
 345:.\Generated_Source\PSoC5/LCD_Seg_1.c ****                                      (uint8) LCD_Seg_1_CNTL_MODE_MASK);
 346:.\Generated_Source\PSoC5/LCD_Seg_1.c **** 
 347:.\Generated_Source\PSoC5/LCD_Seg_1.c ****     /* ISR initialization */
 348:.\Generated_Source\PSoC5/LCD_Seg_1.c ****     (void) CyIntDisable(LCD_Seg_1_ISR_NUMBER);
 349:.\Generated_Source\PSoC5/LCD_Seg_1.c **** 
 350:.\Generated_Source\PSoC5/LCD_Seg_1.c ****     /* Set the ISR to point to the TD_DoneInt Interrupt. */
 351:.\Generated_Source\PSoC5/LCD_Seg_1.c ****     (void) CyIntSetVector(LCD_Seg_1_ISR_NUMBER, &LCD_Seg_1_ISR);
 352:.\Generated_Source\PSoC5/LCD_Seg_1.c **** 
 353:.\Generated_Source\PSoC5/LCD_Seg_1.c ****     /* Set the priority. */
 354:.\Generated_Source\PSoC5/LCD_Seg_1.c ****     CyIntSetPriority(LCD_Seg_1_ISR_NUMBER, LCD_Seg_1_ISR_PRIORITY);
 355:.\Generated_Source\PSoC5/LCD_Seg_1.c ****      
 356:.\Generated_Source\PSoC5/LCD_Seg_1.c ****     #if(CY_PSOC5LP)
 357:.\Generated_Source\PSoC5/LCD_Seg_1.c ****     
 358:.\Generated_Source\PSoC5/LCD_Seg_1.c ****         /* Wakeup ISR initialization */
 359:.\Generated_Source\PSoC5/LCD_Seg_1.c ****         CyIntDisable(LCD_Seg_1_WAKEUP_ISR_NUMBER);
 360:.\Generated_Source\PSoC5/LCD_Seg_1.c **** 
 361:.\Generated_Source\PSoC5/LCD_Seg_1.c ****         /* Set the ISR to point to the Wakeup_isr Interrupt. */
 362:.\Generated_Source\PSoC5/LCD_Seg_1.c ****         (void) CyIntSetVector(LCD_Seg_1_WAKEUP_ISR_NUMBER, &LCD_Seg_1_WAKEUP_ISR);
 363:.\Generated_Source\PSoC5/LCD_Seg_1.c **** 
 364:.\Generated_Source\PSoC5/LCD_Seg_1.c ****         /* Set the priority of Wakeup ISR. */
 365:.\Generated_Source\PSoC5/LCD_Seg_1.c ****         CyIntSetPriority(LCD_Seg_1_WAKEUP_ISR_NUMBER, LCD_Seg_1_WAKEUP_ISR_PRIORITY);
 366:.\Generated_Source\PSoC5/LCD_Seg_1.c ****     
 367:.\Generated_Source\PSoC5/LCD_Seg_1.c ****     #endif /* CY_PSOC5LP */
 368:.\Generated_Source\PSoC5/LCD_Seg_1.c **** }
 369:.\Generated_Source\PSoC5/LCD_Seg_1.c **** 
 370:.\Generated_Source\PSoC5/LCD_Seg_1.c **** 
 371:.\Generated_Source\PSoC5/LCD_Seg_1.c **** /*******************************************************************************
 372:.\Generated_Source\PSoC5/LCD_Seg_1.c **** * Function Name: LCD_Seg_1_Enable
 373:.\Generated_Source\PSoC5/LCD_Seg_1.c **** ********************************************************************************
 374:.\Generated_Source\PSoC5/LCD_Seg_1.c **** *
ARM GAS  C:\Users\hari\AppData\Local\Temp\ccc0gtQ0.s 			page 8


 375:.\Generated_Source\PSoC5/LCD_Seg_1.c **** * Summary:
 376:.\Generated_Source\PSoC5/LCD_Seg_1.c **** *  Enables the power to LCD fixed hardware and enables generation of UDB
 377:.\Generated_Source\PSoC5/LCD_Seg_1.c **** *  signals.
 378:.\Generated_Source\PSoC5/LCD_Seg_1.c **** *
 379:.\Generated_Source\PSoC5/LCD_Seg_1.c **** * Parameters:
 380:.\Generated_Source\PSoC5/LCD_Seg_1.c **** *  None.
 381:.\Generated_Source\PSoC5/LCD_Seg_1.c **** *
 382:.\Generated_Source\PSoC5/LCD_Seg_1.c **** * Return:
 383:.\Generated_Source\PSoC5/LCD_Seg_1.c **** *  Status one of standard status for PSoC3 Component:
 384:.\Generated_Source\PSoC5/LCD_Seg_1.c **** *      CYRET_SUCCESS - function completed successfully.
 385:.\Generated_Source\PSoC5/LCD_Seg_1.c **** *      CYRET_LOCKED - the object was locked, already in use. Some of TDs or
 386:.\Generated_Source\PSoC5/LCD_Seg_1.c **** *                     a channel already in use.
 387:.\Generated_Source\PSoC5/LCD_Seg_1.c **** *
 388:.\Generated_Source\PSoC5/LCD_Seg_1.c **** * Reentrant:
 389:.\Generated_Source\PSoC5/LCD_Seg_1.c **** *  No.
 390:.\Generated_Source\PSoC5/LCD_Seg_1.c **** *
 391:.\Generated_Source\PSoC5/LCD_Seg_1.c **** *******************************************************************************/
 392:.\Generated_Source\PSoC5/LCD_Seg_1.c **** uint8 LCD_Seg_1_Enable(void) 
 393:.\Generated_Source\PSoC5/LCD_Seg_1.c **** {
 394:.\Generated_Source\PSoC5/LCD_Seg_1.c ****     uint8 status;
 395:.\Generated_Source\PSoC5/LCD_Seg_1.c ****     uint8 interruptState;
 396:.\Generated_Source\PSoC5/LCD_Seg_1.c **** 
 397:.\Generated_Source\PSoC5/LCD_Seg_1.c ****     interruptState = CyEnterCriticalSection();
 398:.\Generated_Source\PSoC5/LCD_Seg_1.c **** 
 399:.\Generated_Source\PSoC5/LCD_Seg_1.c ****     /* Enable the LCD hardware */
 400:.\Generated_Source\PSoC5/LCD_Seg_1.c ****     LCD_Seg_1_PWR_MGR_REG |= LCD_Seg_1_LCD_EN;
 401:.\Generated_Source\PSoC5/LCD_Seg_1.c ****     LCD_Seg_1_PWR_MGR_STBY_REG |= LCD_Seg_1_LCD_STBY_EN;
 402:.\Generated_Source\PSoC5/LCD_Seg_1.c **** 
 403:.\Generated_Source\PSoC5/LCD_Seg_1.c ****     CyExitCriticalSection(interruptState);
 404:.\Generated_Source\PSoC5/LCD_Seg_1.c **** 
 405:.\Generated_Source\PSoC5/LCD_Seg_1.c ****     /* Enable internal clock */
 406:.\Generated_Source\PSoC5/LCD_Seg_1.c ****     LCD_Seg_1_Int_Clock_Enable();
 407:.\Generated_Source\PSoC5/LCD_Seg_1.c **** 
 408:.\Generated_Source\PSoC5/LCD_Seg_1.c ****     status = LCD_Seg_1_DmaConfigure();
 409:.\Generated_Source\PSoC5/LCD_Seg_1.c **** 
 410:.\Generated_Source\PSoC5/LCD_Seg_1.c ****     /* Set LCD PWM period */
 411:.\Generated_Source\PSoC5/LCD_Seg_1.c ****     LCD_Seg_1_PWM_PERIOD_REG = LCD_Seg_1_PWM_PERIOD_VAL;
 412:.\Generated_Source\PSoC5/LCD_Seg_1.c ****     LCD_Seg_1_PWM_DRIVE_REG = LCD_Seg_1_PWM_DRIVE_VAL;
 413:.\Generated_Source\PSoC5/LCD_Seg_1.c ****     LCD_Seg_1_PWM_LODRIVE_REG = LCD_Seg_1_PWM_LOWDRIVE_VAL;
 414:.\Generated_Source\PSoC5/LCD_Seg_1.c **** 
 415:.\Generated_Source\PSoC5/LCD_Seg_1.c ****     LCD_Seg_1_WriteControlReg((uint8) LCD_Seg_1_CNTL_FRAME_DONE,
 416:.\Generated_Source\PSoC5/LCD_Seg_1.c ****     (uint8)LCD_Seg_1_CNTL_FRAME_DONE_MASK);
 417:.\Generated_Source\PSoC5/LCD_Seg_1.c **** 
 418:.\Generated_Source\PSoC5/LCD_Seg_1.c ****     /* Global UDB enable, will be sent by DMA */
 419:.\Generated_Source\PSoC5/LCD_Seg_1.c ****     LCD_Seg_1_WriteControlReg((uint8) LCD_Seg_1_CNTL_CLK_EN, (uint8) LCD_Seg_1_CNTL_CLK_EN_MASK);
 420:.\Generated_Source\PSoC5/LCD_Seg_1.c **** 
 421:.\Generated_Source\PSoC5/LCD_Seg_1.c ****     /* Global UDB enable, this required to start normal work as
 422:.\Generated_Source\PSoC5/LCD_Seg_1.c ****     * it enables first DMA request.
 423:.\Generated_Source\PSoC5/LCD_Seg_1.c ****     */
 424:.\Generated_Source\PSoC5/LCD_Seg_1.c ****     LCD_Seg_1_CONTROL_REG |= LCD_Seg_1_CNTL_CLK_EN;
 425:.\Generated_Source\PSoC5/LCD_Seg_1.c **** 
 426:.\Generated_Source\PSoC5/LCD_Seg_1.c ****     #if(LCD_Seg_1_POWER_MODE != LCD_Seg_1__NO_SLEEP)
 427:.\Generated_Source\PSoC5/LCD_Seg_1.c **** 
 428:.\Generated_Source\PSoC5/LCD_Seg_1.c ****         /* Enable generation of lp_ack signal from UBD to PM */
 429:.\Generated_Source\PSoC5/LCD_Seg_1.c ****         LCD_Seg_1_LCDDAC_CONTROL_REG |= LCD_Seg_1_LCDDAC_UDB_LP_EN;
 430:.\Generated_Source\PSoC5/LCD_Seg_1.c **** 
 431:.\Generated_Source\PSoC5/LCD_Seg_1.c ****         /* Start the LCD timer if in one of Low Power modes */
ARM GAS  C:\Users\hari\AppData\Local\Temp\ccc0gtQ0.s 			page 9


 432:.\Generated_Source\PSoC5/LCD_Seg_1.c ****         LCD_Seg_1_TIMER_CONTROL_REG |= LCD_Seg_1_TIMER_EN;
 433:.\Generated_Source\PSoC5/LCD_Seg_1.c **** 
 434:.\Generated_Source\PSoC5/LCD_Seg_1.c ****     #endif /* LCD_Seg_1_POWER_MODE == LCD_Seg_1__NO_SLEEP */
 435:.\Generated_Source\PSoC5/LCD_Seg_1.c **** 
 436:.\Generated_Source\PSoC5/LCD_Seg_1.c ****     return(status);
 437:.\Generated_Source\PSoC5/LCD_Seg_1.c **** }
 438:.\Generated_Source\PSoC5/LCD_Seg_1.c **** 
 439:.\Generated_Source\PSoC5/LCD_Seg_1.c **** 
 440:.\Generated_Source\PSoC5/LCD_Seg_1.c **** /*******************************************************************************
 441:.\Generated_Source\PSoC5/LCD_Seg_1.c **** * Function Name: LCD_Seg_1_DmaConfigure
 442:.\Generated_Source\PSoC5/LCD_Seg_1.c **** ********************************************************************************
 443:.\Generated_Source\PSoC5/LCD_Seg_1.c **** *
 444:.\Generated_Source\PSoC5/LCD_Seg_1.c **** * Summary:
 445:.\Generated_Source\PSoC5/LCD_Seg_1.c **** *  Configures DMA for the components usage, transfering dasplay data and
 446:.\Generated_Source\PSoC5/LCD_Seg_1.c **** *  generating frame signal. Allocates required number of TDs and configures
 447:.\Generated_Source\PSoC5/LCD_Seg_1.c **** *  them, enables DMA channels.
 448:.\Generated_Source\PSoC5/LCD_Seg_1.c **** *
 449:.\Generated_Source\PSoC5/LCD_Seg_1.c **** * Parameters:
 450:.\Generated_Source\PSoC5/LCD_Seg_1.c **** *  None.
 451:.\Generated_Source\PSoC5/LCD_Seg_1.c **** *
 452:.\Generated_Source\PSoC5/LCD_Seg_1.c **** * Return:
 453:.\Generated_Source\PSoC5/LCD_Seg_1.c **** *  Status one of standard status for PSoC3 Component
 454:.\Generated_Source\PSoC5/LCD_Seg_1.c **** *       CYRET_SUCCESS - function completed successfully.
 455:.\Generated_Source\PSoC5/LCD_Seg_1.c **** *       CYRET_LOCKED - the object was locked, already in use. Some of TDs or
 456:.\Generated_Source\PSoC5/LCD_Seg_1.c **** *                      a channel already in use.
 457:.\Generated_Source\PSoC5/LCD_Seg_1.c **** *
 458:.\Generated_Source\PSoC5/LCD_Seg_1.c **** * Global variables:
 459:.\Generated_Source\PSoC5/LCD_Seg_1.c **** *  LCD_Seg_1_lcdTd[] - used to store a set of allocated TD IDs that are
 460:.\Generated_Source\PSoC5/LCD_Seg_1.c **** *  used by this component.
 461:.\Generated_Source\PSoC5/LCD_Seg_1.c **** *
 462:.\Generated_Source\PSoC5/LCD_Seg_1.c **** *  LCD_Seg_1_lcdChannel - stores a DMA Channel allocated for an LCD
 463:.\Generated_Source\PSoC5/LCD_Seg_1.c **** *  usage.
 464:.\Generated_Source\PSoC5/LCD_Seg_1.c **** *
 465:.\Generated_Source\PSoC5/LCD_Seg_1.c **** *  LCD_Seg_1_frameTd[] - used to store a set of allocated TD IDs that
 466:.\Generated_Source\PSoC5/LCD_Seg_1.c **** *  are used by this component for Frame signal generation.
 467:.\Generated_Source\PSoC5/LCD_Seg_1.c **** *
 468:.\Generated_Source\PSoC5/LCD_Seg_1.c **** *  LCD_Seg_1_LcdPort_DMA_TD_PROTO_BLOCK[] - used as a parameter for
 469:.\Generated_Source\PSoC5/LCD_Seg_1.c **** *  DMA configuration.
 470:.\Generated_Source\PSoC5/LCD_Seg_1.c **** *
 471:.\Generated_Source\PSoC5/LCD_Seg_1.c **** * Reentrant:
 472:.\Generated_Source\PSoC5/LCD_Seg_1.c **** *  No.
 473:.\Generated_Source\PSoC5/LCD_Seg_1.c **** *
 474:.\Generated_Source\PSoC5/LCD_Seg_1.c **** *******************************************************************************/
 475:.\Generated_Source\PSoC5/LCD_Seg_1.c **** static uint8 LCD_Seg_1_DmaConfigure(void) CYREENTRANT
 476:.\Generated_Source\PSoC5/LCD_Seg_1.c **** {
 477:.\Generated_Source\PSoC5/LCD_Seg_1.c ****     uint8   status = CYRET_SUCCESS;
 478:.\Generated_Source\PSoC5/LCD_Seg_1.c ****     uint8   i;
 479:.\Generated_Source\PSoC5/LCD_Seg_1.c ****     uint8   j;
 480:.\Generated_Source\PSoC5/LCD_Seg_1.c ****     uint32  srcAddr;
 481:.\Generated_Source\PSoC5/LCD_Seg_1.c ****     uint32  dstAddr;
 482:.\Generated_Source\PSoC5/LCD_Seg_1.c ****     /* DMA_PROTO_TD_DEF */
 483:.\Generated_Source\PSoC5/LCD_Seg_1.c ****     static const struct LCD_Seg_1_DMA_TD_PROTO_ENTRY CYCODE LCD_Seg_1_SegLcdPort_DMA_TD_PROTO_BLOCK
 484:.\Generated_Source\PSoC5/LCD_Seg_1.c ****     {
 485:.\Generated_Source\PSoC5/LCD_Seg_1.c ****         {2u, 2u},
 486:.\Generated_Source\PSoC5/LCD_Seg_1.c ****     };
 487:.\Generated_Source\PSoC5/LCD_Seg_1.c **** 
 488:.\Generated_Source\PSoC5/LCD_Seg_1.c ****     /* Take source and destination address */
ARM GAS  C:\Users\hari\AppData\Local\Temp\ccc0gtQ0.s 			page 10


 489:.\Generated_Source\PSoC5/LCD_Seg_1.c ****     /* Conditional compilation is needed to avoid MISRA warning */
 490:.\Generated_Source\PSoC5/LCD_Seg_1.c ****     #if(CY_PSOC5)
 491:.\Generated_Source\PSoC5/LCD_Seg_1.c ****         srcAddr = (uint32) LCD_Seg_1_frameTx;
 492:.\Generated_Source\PSoC5/LCD_Seg_1.c ****         dstAddr = (uint32) LCD_Seg_1_CONTROL_PTR;
 493:.\Generated_Source\PSoC5/LCD_Seg_1.c ****         
 494:.\Generated_Source\PSoC5/LCD_Seg_1.c ****         /* Get the DMA channel for the Frame and check it for validness */
 495:.\Generated_Source\PSoC5/LCD_Seg_1.c ****         LCD_Seg_1_frameChannel = LCD_Seg_1_Frame_Dma_DmaInitialize(0u, 0u, HI16(srcAddr), 
 496:.\Generated_Source\PSoC5/LCD_Seg_1.c ****                                                                             HI16(LCD_Seg_1_CONTROL_
 497:.\Generated_Source\PSoC5/LCD_Seg_1.c ****     #else
 498:.\Generated_Source\PSoC5/LCD_Seg_1.c ****         srcAddr = LCD_Seg_1_DMA_ADDRESS_MASK & ((uint32) LCD_Seg_1_frameTx);
 499:.\Generated_Source\PSoC5/LCD_Seg_1.c ****         dstAddr = LCD_Seg_1_DMA_ADDRESS_MASK & ((uint32) LCD_Seg_1_CONTROL_PTR);
 500:.\Generated_Source\PSoC5/LCD_Seg_1.c ****         
 501:.\Generated_Source\PSoC5/LCD_Seg_1.c ****         /* Get the DMA channel for the Frame and check it for validness.
 502:.\Generated_Source\PSoC5/LCD_Seg_1.c ****         * Upper 2 bytes of destination and source addrresses are always 0.
 503:.\Generated_Source\PSoC5/LCD_Seg_1.c ****         */
 504:.\Generated_Source\PSoC5/LCD_Seg_1.c ****         LCD_Seg_1_frameChannel = LCD_Seg_1_Frame_Dma_DmaInitialize(0u, 0u, 0u, 0u);
 505:.\Generated_Source\PSoC5/LCD_Seg_1.c ****     #endif /* CY_PSOC5 */
 506:.\Generated_Source\PSoC5/LCD_Seg_1.c **** 
 507:.\Generated_Source\PSoC5/LCD_Seg_1.c ****     if(LCD_Seg_1_frameChannel == DMA_INVALID_CHANNEL)
 508:.\Generated_Source\PSoC5/LCD_Seg_1.c ****     {
 509:.\Generated_Source\PSoC5/LCD_Seg_1.c ****         status = CYRET_LOCKED;
 510:.\Generated_Source\PSoC5/LCD_Seg_1.c ****     }
 511:.\Generated_Source\PSoC5/LCD_Seg_1.c **** 
 512:.\Generated_Source\PSoC5/LCD_Seg_1.c ****     /* The DMA configuration for Type A and Type B waveforms differs because of
 513:.\Generated_Source\PSoC5/LCD_Seg_1.c ****     *  the their specification. Type A waveforms use only two TDs no matter what
 514:.\Generated_Source\PSoC5/LCD_Seg_1.c ****     *  is the number of commons and Type B waveforms TDs usage is  dependent on
 515:.\Generated_Source\PSoC5/LCD_Seg_1.c ****     *  the number of commons.
 516:.\Generated_Source\PSoC5/LCD_Seg_1.c ****     */
 517:.\Generated_Source\PSoC5/LCD_Seg_1.c ****     #if(LCD_Seg_1_WAVEFORM_TYPE == LCD_Seg_1__TYPE_A)
 518:.\Generated_Source\PSoC5/LCD_Seg_1.c **** 
 519:.\Generated_Source\PSoC5/LCD_Seg_1.c ****         for(i = 0u; i < LCD_Seg_1_CONTROL_WRITE_COUNT; i++)
 520:.\Generated_Source\PSoC5/LCD_Seg_1.c ****         {   /* Allocate a TD and check it if it valid. */
 521:.\Generated_Source\PSoC5/LCD_Seg_1.c ****             LCD_Seg_1_frameTd[i]= CyDmaTdAllocate();
 522:.\Generated_Source\PSoC5/LCD_Seg_1.c ****             
 523:.\Generated_Source\PSoC5/LCD_Seg_1.c ****             if(DMA_INVALID_TD == LCD_Seg_1_frameTd[i])
 524:.\Generated_Source\PSoC5/LCD_Seg_1.c ****             {
 525:.\Generated_Source\PSoC5/LCD_Seg_1.c ****                 status = CYRET_LOCKED;
 526:.\Generated_Source\PSoC5/LCD_Seg_1.c ****             }
 527:.\Generated_Source\PSoC5/LCD_Seg_1.c ****         }
 528:.\Generated_Source\PSoC5/LCD_Seg_1.c ****         
 529:.\Generated_Source\PSoC5/LCD_Seg_1.c ****         /* Set configuration for the first TD */
 530:.\Generated_Source\PSoC5/LCD_Seg_1.c ****         (void) CyDmaTdSetConfiguration(LCD_Seg_1_frameTd[0u],
 531:.\Generated_Source\PSoC5/LCD_Seg_1.c ****                                        1u,
 532:.\Generated_Source\PSoC5/LCD_Seg_1.c ****                                        LCD_Seg_1_frameTd[1u],
 533:.\Generated_Source\PSoC5/LCD_Seg_1.c ****                                        TD_INC_SRC_ADR | LCD_Seg_1_Frame_Dma__TD_TERMOUT_EN);
 534:.\Generated_Source\PSoC5/LCD_Seg_1.c **** 
 535:.\Generated_Source\PSoC5/LCD_Seg_1.c ****         (void) CyDmaTdSetAddress(LCD_Seg_1_frameTd[0u], LO16(srcAddr), LO16(dstAddr));
 536:.\Generated_Source\PSoC5/LCD_Seg_1.c **** 
 537:.\Generated_Source\PSoC5/LCD_Seg_1.c ****         /* Set configuration for the second TD */
 538:.\Generated_Source\PSoC5/LCD_Seg_1.c ****         (void) CyDmaTdSetConfiguration(LCD_Seg_1_frameTd[1u],
 539:.\Generated_Source\PSoC5/LCD_Seg_1.c ****                                        1u,
 540:.\Generated_Source\PSoC5/LCD_Seg_1.c ****                                        LCD_Seg_1_frameTd[0u],
 541:.\Generated_Source\PSoC5/LCD_Seg_1.c ****                                        TD_INC_SRC_ADR | LCD_Seg_1_Frame_Dma__TD_TERMOUT_EN);
 542:.\Generated_Source\PSoC5/LCD_Seg_1.c **** 
 543:.\Generated_Source\PSoC5/LCD_Seg_1.c ****         (void) CyDmaTdSetAddress(LCD_Seg_1_frameTd[1u], LO16(srcAddr + 1u), LO16(dstAddr));
 544:.\Generated_Source\PSoC5/LCD_Seg_1.c **** 
 545:.\Generated_Source\PSoC5/LCD_Seg_1.c ****     #else /* Waveform Type B */
ARM GAS  C:\Users\hari\AppData\Local\Temp\ccc0gtQ0.s 			page 11


 546:.\Generated_Source\PSoC5/LCD_Seg_1.c **** 
 547:.\Generated_Source\PSoC5/LCD_Seg_1.c ****         for(i = 0u; i < LCD_Seg_1_CONTROL_WRITE_COUNT; i++)
 548:.\Generated_Source\PSoC5/LCD_Seg_1.c ****         {
 549:.\Generated_Source\PSoC5/LCD_Seg_1.c ****             LCD_Seg_1_frameTd[i]= CyDmaTdAllocate();
 550:.\Generated_Source\PSoC5/LCD_Seg_1.c ****             if(DMA_INVALID_TD == LCD_Seg_1_frameTd[i])
 551:.\Generated_Source\PSoC5/LCD_Seg_1.c ****             {
 552:.\Generated_Source\PSoC5/LCD_Seg_1.c ****                 status = CYRET_LOCKED;
 553:.\Generated_Source\PSoC5/LCD_Seg_1.c ****             }
 554:.\Generated_Source\PSoC5/LCD_Seg_1.c ****         }
 555:.\Generated_Source\PSoC5/LCD_Seg_1.c **** 
 556:.\Generated_Source\PSoC5/LCD_Seg_1.c ****         for(i = 0u; i < LCD_Seg_1_CONTROL_WRITE_COUNT; i++)
 557:.\Generated_Source\PSoC5/LCD_Seg_1.c ****         {
 558:.\Generated_Source\PSoC5/LCD_Seg_1.c ****             if((LCD_Seg_1_CONTROL_WRITE_COUNT - 1u) != i)
 559:.\Generated_Source\PSoC5/LCD_Seg_1.c ****             {
 560:.\Generated_Source\PSoC5/LCD_Seg_1.c ****                 (void) CyDmaTdSetConfiguration(LCD_Seg_1_frameTd[i],
 561:.\Generated_Source\PSoC5/LCD_Seg_1.c ****                                                1u,
 562:.\Generated_Source\PSoC5/LCD_Seg_1.c ****                                                LCD_Seg_1_frameTd[i + 1u],
 563:.\Generated_Source\PSoC5/LCD_Seg_1.c ****                                                TD_INC_SRC_ADR | 
 564:.\Generated_Source\PSoC5/LCD_Seg_1.c ****                                                LCD_Seg_1_Frame_Dma__TD_TERMOUT_EN);
 565:.\Generated_Source\PSoC5/LCD_Seg_1.c ****             }
 566:.\Generated_Source\PSoC5/LCD_Seg_1.c ****             else
 567:.\Generated_Source\PSoC5/LCD_Seg_1.c ****             {
 568:.\Generated_Source\PSoC5/LCD_Seg_1.c ****                 (void) CyDmaTdSetConfiguration(LCD_Seg_1_frameTd[i],
 569:.\Generated_Source\PSoC5/LCD_Seg_1.c ****                                                1u,
 570:.\Generated_Source\PSoC5/LCD_Seg_1.c ****                                                LCD_Seg_1_frameTd[0u],
 571:.\Generated_Source\PSoC5/LCD_Seg_1.c ****                                                TD_INC_SRC_ADR | 
 572:.\Generated_Source\PSoC5/LCD_Seg_1.c ****                                                LCD_Seg_1_Frame_Dma__TD_TERMOUT_EN);
 573:.\Generated_Source\PSoC5/LCD_Seg_1.c ****             }
 574:.\Generated_Source\PSoC5/LCD_Seg_1.c ****             (void) CyDmaTdSetAddress(LCD_Seg_1_frameTd[i], LO16(srcAddr) + i , LO16(dstAddr));
 575:.\Generated_Source\PSoC5/LCD_Seg_1.c ****         }
 576:.\Generated_Source\PSoC5/LCD_Seg_1.c **** 
 577:.\Generated_Source\PSoC5/LCD_Seg_1.c ****     #endif /* LCD_Seg_1_WAVEFORM_TYPE == LCD_Seg_1__TYPE_A */
 578:.\Generated_Source\PSoC5/LCD_Seg_1.c **** 
 579:.\Generated_Source\PSoC5/LCD_Seg_1.c ****     if(CYRET_LOCKED != status)
 580:.\Generated_Source\PSoC5/LCD_Seg_1.c ****     {
 581:.\Generated_Source\PSoC5/LCD_Seg_1.c ****         (void) CyDmaChSetInitialTd(LCD_Seg_1_frameChannel, LCD_Seg_1_frameTd[0u]);
 582:.\Generated_Source\PSoC5/LCD_Seg_1.c ****         (void) CyDmaChEnable(LCD_Seg_1_frameChannel, 1u);
 583:.\Generated_Source\PSoC5/LCD_Seg_1.c ****     }
 584:.\Generated_Source\PSoC5/LCD_Seg_1.c **** 
 585:.\Generated_Source\PSoC5/LCD_Seg_1.c ****     /* Conditional compilation is needed to avoid MISRA warning */
 586:.\Generated_Source\PSoC5/LCD_Seg_1.c ****     #if(CY_PSOC5LP)
 587:.\Generated_Source\PSoC5/LCD_Seg_1.c ****         srcAddr = (uint32) LCD_Seg_1_buffer;
 588:.\Generated_Source\PSoC5/LCD_Seg_1.c ****         dstAddr = (uint32) LCD_Seg_1_ALIASED_AREA_PTR;
 589:.\Generated_Source\PSoC5/LCD_Seg_1.c ****         
 590:.\Generated_Source\PSoC5/LCD_Seg_1.c ****         LCD_Seg_1_lcdChannel = LCD_Seg_1_Lcd_Dma_DmaInitialize(0u, 0u, HI16(srcAddr), 
 591:.\Generated_Source\PSoC5/LCD_Seg_1.c ****                                                                         HI16(LCD_Seg_1_ALIASED_AREA
 592:.\Generated_Source\PSoC5/LCD_Seg_1.c ****     #else
 593:.\Generated_Source\PSoC5/LCD_Seg_1.c ****         srcAddr = LCD_Seg_1_DMA_ADDRESS_MASK & ((uint32) LCD_Seg_1_buffer);
 594:.\Generated_Source\PSoC5/LCD_Seg_1.c ****         dstAddr = LCD_Seg_1_DMA_ADDRESS_MASK & ((uint32) LCD_Seg_1_ALIASED_AREA_PTR);
 595:.\Generated_Source\PSoC5/LCD_Seg_1.c ****         
 596:.\Generated_Source\PSoC5/LCD_Seg_1.c ****         LCD_Seg_1_lcdChannel = LCD_Seg_1_Lcd_Dma_DmaInitialize(0u, 0u, 0u, 0u);
 597:.\Generated_Source\PSoC5/LCD_Seg_1.c ****     #endif /* CY_PSOC5 */
 598:.\Generated_Source\PSoC5/LCD_Seg_1.c **** 
 599:.\Generated_Source\PSoC5/LCD_Seg_1.c ****     if(LCD_Seg_1_lcdChannel == DMA_INVALID_CHANNEL)
 600:.\Generated_Source\PSoC5/LCD_Seg_1.c ****     {
 601:.\Generated_Source\PSoC5/LCD_Seg_1.c ****         status = CYRET_LOCKED;
 602:.\Generated_Source\PSoC5/LCD_Seg_1.c ****     }
ARM GAS  C:\Users\hari\AppData\Local\Temp\ccc0gtQ0.s 			page 12


 603:.\Generated_Source\PSoC5/LCD_Seg_1.c **** 
 604:.\Generated_Source\PSoC5/LCD_Seg_1.c ****     for(j = 0u; j < LCD_Seg_1_COMM_NUM; j++)
 605:.\Generated_Source\PSoC5/LCD_Seg_1.c ****     {
 606:.\Generated_Source\PSoC5/LCD_Seg_1.c ****         #if(1 == LCD_Seg_1_SegLcdPort_DMA_TD_PROTO_COUNT)
 607:.\Generated_Source\PSoC5/LCD_Seg_1.c ****                 
 608:.\Generated_Source\PSoC5/LCD_Seg_1.c ****             LCD_Seg_1_lcdTd[j] = CyDmaTdAllocate();
 609:.\Generated_Source\PSoC5/LCD_Seg_1.c ****             
 610:.\Generated_Source\PSoC5/LCD_Seg_1.c ****             if(DMA_INVALID_TD == LCD_Seg_1_lcdTd[j])
 611:.\Generated_Source\PSoC5/LCD_Seg_1.c ****             {
 612:.\Generated_Source\PSoC5/LCD_Seg_1.c ****                 status = CYRET_LOCKED;
 613:.\Generated_Source\PSoC5/LCD_Seg_1.c ****             }
 614:.\Generated_Source\PSoC5/LCD_Seg_1.c **** 
 615:.\Generated_Source\PSoC5/LCD_Seg_1.c ****         #else
 616:.\Generated_Source\PSoC5/LCD_Seg_1.c ****         
 617:.\Generated_Source\PSoC5/LCD_Seg_1.c ****             i = 0u;
 618:.\Generated_Source\PSoC5/LCD_Seg_1.c ****             
 619:.\Generated_Source\PSoC5/LCD_Seg_1.c ****             do{
 620:.\Generated_Source\PSoC5/LCD_Seg_1.c ****                 LCD_Seg_1_lcdTd[(j * LCD_Seg_1_LCD_TD_SIZE) + i] = CyDmaTdAllocate();
 621:.\Generated_Source\PSoC5/LCD_Seg_1.c ****                 
 622:.\Generated_Source\PSoC5/LCD_Seg_1.c ****                 if(DMA_INVALID_TD == LCD_Seg_1_lcdTd[(j * LCD_Seg_1_LCD_TD_SIZE) + i])
 623:.\Generated_Source\PSoC5/LCD_Seg_1.c ****                 {
 624:.\Generated_Source\PSoC5/LCD_Seg_1.c ****                     status = CYRET_LOCKED;
 625:.\Generated_Source\PSoC5/LCD_Seg_1.c ****                 }
 626:.\Generated_Source\PSoC5/LCD_Seg_1.c ****             
 627:.\Generated_Source\PSoC5/LCD_Seg_1.c ****                 i++;
 628:.\Generated_Source\PSoC5/LCD_Seg_1.c ****                 
 629:.\Generated_Source\PSoC5/LCD_Seg_1.c ****             } while(i < LCD_Seg_1_LCD_TD_SIZE);
 630:.\Generated_Source\PSoC5/LCD_Seg_1.c ****             
 631:.\Generated_Source\PSoC5/LCD_Seg_1.c ****         #endif /* (1 == LCD_Seg_1_SegLcdPort_DMA_TD_PROTO_COUNT) */
 632:.\Generated_Source\PSoC5/LCD_Seg_1.c ****     }
 633:.\Generated_Source\PSoC5/LCD_Seg_1.c **** 
 634:.\Generated_Source\PSoC5/LCD_Seg_1.c ****     for(j = 0u; j < LCD_Seg_1_COMM_NUM; j++)
 635:.\Generated_Source\PSoC5/LCD_Seg_1.c ****     {
 636:.\Generated_Source\PSoC5/LCD_Seg_1.c ****         /* This is to supress MISRA warning. Depending on
 637:.\Generated_Source\PSoC5/LCD_Seg_1.c ****         * LCD_Seg_1_SegLcdPort_DMA_TD_PROTO_COUNT need to differentiate
 638:.\Generated_Source\PSoC5/LCD_Seg_1.c ****         * 2 or 3 configurations of LCD DMA transaction descriptors.
 639:.\Generated_Source\PSoC5/LCD_Seg_1.c ****         */
 640:.\Generated_Source\PSoC5/LCD_Seg_1.c ****         #if(1 == LCD_Seg_1_SegLcdPort_DMA_TD_PROTO_COUNT)
 641:.\Generated_Source\PSoC5/LCD_Seg_1.c ****             
 642:.\Generated_Source\PSoC5/LCD_Seg_1.c ****             if(LCD_Seg_1_COM_TD_COUNT == j)
 643:.\Generated_Source\PSoC5/LCD_Seg_1.c ****             {
 644:.\Generated_Source\PSoC5/LCD_Seg_1.c ****                 /* The last TD need to point to TD[0] */
 645:.\Generated_Source\PSoC5/LCD_Seg_1.c ****                 (void) CyDmaTdSetConfiguration(LCD_Seg_1_lcdTd[j],
 646:.\Generated_Source\PSoC5/LCD_Seg_1.c ****                                                (uint16)LCD_Seg_1_SegLcdPort_DMA_TD_PROTO_BLOCK[0].l
 647:.\Generated_Source\PSoC5/LCD_Seg_1.c ****                                                LCD_Seg_1_lcdTd[0u],
 648:.\Generated_Source\PSoC5/LCD_Seg_1.c ****                                                TD_INC_DST_ADR | TD_INC_SRC_ADR | 
 649:.\Generated_Source\PSoC5/LCD_Seg_1.c ****                                                LCD_Seg_1_Lcd_Dma__TD_TERMOUT_EN);
 650:.\Generated_Source\PSoC5/LCD_Seg_1.c ****             }
 651:.\Generated_Source\PSoC5/LCD_Seg_1.c ****             /* Create a chain of TDs in which current TD ponts to next TD. 
 652:.\Generated_Source\PSoC5/LCD_Seg_1.c ****             * Each of this TDs should be seperatelly requested.
 653:.\Generated_Source\PSoC5/LCD_Seg_1.c ****             */
 654:.\Generated_Source\PSoC5/LCD_Seg_1.c ****             else
 655:.\Generated_Source\PSoC5/LCD_Seg_1.c ****             {
 656:.\Generated_Source\PSoC5/LCD_Seg_1.c ****                 (void) CyDmaTdSetConfiguration(LCD_Seg_1_lcdTd[j],
 657:.\Generated_Source\PSoC5/LCD_Seg_1.c ****                                                (uint16) LCD_Seg_1_SegLcdPort_DMA_TD_PROTO_BLOCK[0].
 658:.\Generated_Source\PSoC5/LCD_Seg_1.c ****                                                LCD_Seg_1_lcdTd[j + 1u],
 659:.\Generated_Source\PSoC5/LCD_Seg_1.c ****                                                TD_INC_DST_ADR | TD_INC_SRC_ADR | 
ARM GAS  C:\Users\hari\AppData\Local\Temp\ccc0gtQ0.s 			page 13


 660:.\Generated_Source\PSoC5/LCD_Seg_1.c ****                                                LCD_Seg_1_Lcd_Dma__TD_TERMOUT_EN);
 661:.\Generated_Source\PSoC5/LCD_Seg_1.c ****             }
 662:.\Generated_Source\PSoC5/LCD_Seg_1.c ****             
 663:.\Generated_Source\PSoC5/LCD_Seg_1.c ****             (void) CyDmaTdSetAddress(LCD_Seg_1_lcdTd[j],
 664:.\Generated_Source\PSoC5/LCD_Seg_1.c ****                                      LO16(srcAddr) + (((uint16) j) * LCD_Seg_1_ROW_LENGTH) +
 665:.\Generated_Source\PSoC5/LCD_Seg_1.c ****                                      ((uint16) LCD_Seg_1_SegLcdPort_DMA_TD_PROTO_BLOCK[0].offset),
 666:.\Generated_Source\PSoC5/LCD_Seg_1.c ****                                      LO16(dstAddr) + LCD_Seg_1_SegLcdPort_DMA_TD_PROTO_BLOCK[0].off
 667:.\Generated_Source\PSoC5/LCD_Seg_1.c ****         #else
 668:.\Generated_Source\PSoC5/LCD_Seg_1.c **** 
 669:.\Generated_Source\PSoC5/LCD_Seg_1.c ****             for(i = 0u; i < LCD_Seg_1_LCD_TD_SIZE; i++)
 670:.\Generated_Source\PSoC5/LCD_Seg_1.c ****             {
 671:.\Generated_Source\PSoC5/LCD_Seg_1.c ****                 if(LCD_Seg_1_COM_TD_COUNT == ((j * LCD_Seg_1_LCD_TD_SIZE) + i))
 672:.\Generated_Source\PSoC5/LCD_Seg_1.c ****                 {
 673:.\Generated_Source\PSoC5/LCD_Seg_1.c ****                     /* The last TD need to point to TD[0] */
 674:.\Generated_Source\PSoC5/LCD_Seg_1.c ****                     (void) CyDmaTdSetConfiguration(LCD_Seg_1_lcdTd[(j * LCD_Seg_1_LCD_TD_SIZE) + i]
 675:.\Generated_Source\PSoC5/LCD_Seg_1.c ****                                                    (uint16)LCD_Seg_1_SegLcdPort_DMA_TD_PROTO_BLOCK[
 676:.\Generated_Source\PSoC5/LCD_Seg_1.c ****                                                    LCD_Seg_1_lcdTd[0u],
 677:.\Generated_Source\PSoC5/LCD_Seg_1.c ****                                                    TD_INC_DST_ADR | TD_INC_SRC_ADR | 
 678:.\Generated_Source\PSoC5/LCD_Seg_1.c ****                                                    LCD_Seg_1_Lcd_Dma__TD_TERMOUT_EN);
 679:.\Generated_Source\PSoC5/LCD_Seg_1.c ****                 }
 680:.\Generated_Source\PSoC5/LCD_Seg_1.c ****                 /* Create a chain of TDs in which current TD ponts to next TD. 
 681:.\Generated_Source\PSoC5/LCD_Seg_1.c ****                 * Each of this TDs should be seperatelly requested.
 682:.\Generated_Source\PSoC5/LCD_Seg_1.c ****                 */
 683:.\Generated_Source\PSoC5/LCD_Seg_1.c ****                 else if(i == (LCD_Seg_1_LCD_TD_SIZE - 1u))
 684:.\Generated_Source\PSoC5/LCD_Seg_1.c ****                 {
 685:.\Generated_Source\PSoC5/LCD_Seg_1.c ****                     (void) CyDmaTdSetConfiguration(LCD_Seg_1_lcdTd[(j * LCD_Seg_1_LCD_TD_SIZE) + i]
 686:.\Generated_Source\PSoC5/LCD_Seg_1.c ****                                                    (uint16) LCD_Seg_1_SegLcdPort_DMA_TD_PROTO_BLOCK
 687:.\Generated_Source\PSoC5/LCD_Seg_1.c ****                                                    LCD_Seg_1_lcdTd[(j * LCD_Seg_1_LCD_TD_SIZE) + i 
 688:.\Generated_Source\PSoC5/LCD_Seg_1.c ****                                                    TD_INC_DST_ADR | TD_INC_SRC_ADR | 
 689:.\Generated_Source\PSoC5/LCD_Seg_1.c ****                                                    LCD_Seg_1_Lcd_Dma__TD_TERMOUT_EN);
 690:.\Generated_Source\PSoC5/LCD_Seg_1.c ****                 }
 691:.\Generated_Source\PSoC5/LCD_Seg_1.c ****                 /* Create a chain of TDs in which current TD ponts to next TD. 
 692:.\Generated_Source\PSoC5/LCD_Seg_1.c ****                 * After completion of transferring this TD following should
 693:.\Generated_Source\PSoC5/LCD_Seg_1.c ****                 * be automatically requested.
 694:.\Generated_Source\PSoC5/LCD_Seg_1.c ****                 */
 695:.\Generated_Source\PSoC5/LCD_Seg_1.c ****                 else
 696:.\Generated_Source\PSoC5/LCD_Seg_1.c ****                 {
 697:.\Generated_Source\PSoC5/LCD_Seg_1.c ****                     (void) CyDmaTdSetConfiguration(LCD_Seg_1_lcdTd[(j * LCD_Seg_1_LCD_TD_SIZE) + i]
 698:.\Generated_Source\PSoC5/LCD_Seg_1.c ****                                                    (uint16) LCD_Seg_1_SegLcdPort_DMA_TD_PROTO_BLOCK
 699:.\Generated_Source\PSoC5/LCD_Seg_1.c ****                                                    LCD_Seg_1_lcdTd[(j * LCD_Seg_1_LCD_TD_SIZE) + i 
 700:.\Generated_Source\PSoC5/LCD_Seg_1.c ****                                                    TD_INC_DST_ADR |  TD_INC_SRC_ADR | 
 701:.\Generated_Source\PSoC5/LCD_Seg_1.c ****                                                    TD_AUTO_EXEC_NEXT);
 702:.\Generated_Source\PSoC5/LCD_Seg_1.c ****                 }
 703:.\Generated_Source\PSoC5/LCD_Seg_1.c ****                 
 704:.\Generated_Source\PSoC5/LCD_Seg_1.c ****                 (void) CyDmaTdSetAddress(LCD_Seg_1_lcdTd[(j * LCD_Seg_1_LCD_TD_SIZE) + i],
 705:.\Generated_Source\PSoC5/LCD_Seg_1.c ****                                      LO16(srcAddr) + (((uint16) j) * LCD_Seg_1_ROW_LENGTH) +
 706:.\Generated_Source\PSoC5/LCD_Seg_1.c ****                                      ((uint16) LCD_Seg_1_SegLcdPort_DMA_TD_PROTO_BLOCK[i].offset),
 707:.\Generated_Source\PSoC5/LCD_Seg_1.c ****                                       LO16(dstAddr) + LCD_Seg_1_SegLcdPort_DMA_TD_PROTO_BLOCK[i].of
 708:.\Generated_Source\PSoC5/LCD_Seg_1.c ****             }
 709:.\Generated_Source\PSoC5/LCD_Seg_1.c ****             
 710:.\Generated_Source\PSoC5/LCD_Seg_1.c ****         #endif /* (1 == LCD_Seg_1_SegLcdPort_DMA_TD_PROTO_COUNT) */
 711:.\Generated_Source\PSoC5/LCD_Seg_1.c ****     }
 712:.\Generated_Source\PSoC5/LCD_Seg_1.c **** 
 713:.\Generated_Source\PSoC5/LCD_Seg_1.c ****     if(CYRET_LOCKED != status)
 714:.\Generated_Source\PSoC5/LCD_Seg_1.c ****     {
 715:.\Generated_Source\PSoC5/LCD_Seg_1.c ****         (void) CyDmaChSetInitialTd(LCD_Seg_1_lcdChannel, LCD_Seg_1_lcdTd[0u]);
 716:.\Generated_Source\PSoC5/LCD_Seg_1.c ****         (void) CyDmaChEnable(LCD_Seg_1_lcdChannel, 1u);
ARM GAS  C:\Users\hari\AppData\Local\Temp\ccc0gtQ0.s 			page 14


 717:.\Generated_Source\PSoC5/LCD_Seg_1.c ****     }
 718:.\Generated_Source\PSoC5/LCD_Seg_1.c **** 
 719:.\Generated_Source\PSoC5/LCD_Seg_1.c ****     return(status);
 720:.\Generated_Source\PSoC5/LCD_Seg_1.c **** }
 721:.\Generated_Source\PSoC5/LCD_Seg_1.c **** 
 722:.\Generated_Source\PSoC5/LCD_Seg_1.c **** 
 723:.\Generated_Source\PSoC5/LCD_Seg_1.c **** /*******************************************************************************
 724:.\Generated_Source\PSoC5/LCD_Seg_1.c **** * Function Name: LCD_Seg_1_DmaDispose
 725:.\Generated_Source\PSoC5/LCD_Seg_1.c **** ********************************************************************************
 726:.\Generated_Source\PSoC5/LCD_Seg_1.c **** *
 727:.\Generated_Source\PSoC5/LCD_Seg_1.c **** * Summary:
 728:.\Generated_Source\PSoC5/LCD_Seg_1.c **** *  Releases allocated TDs disables DMA Channels used for component operation.
 729:.\Generated_Source\PSoC5/LCD_Seg_1.c **** *
 730:.\Generated_Source\PSoC5/LCD_Seg_1.c **** * Parameters:
 731:.\Generated_Source\PSoC5/LCD_Seg_1.c **** *  None.
 732:.\Generated_Source\PSoC5/LCD_Seg_1.c **** *
 733:.\Generated_Source\PSoC5/LCD_Seg_1.c **** * Return:
 734:.\Generated_Source\PSoC5/LCD_Seg_1.c **** *  None.
 735:.\Generated_Source\PSoC5/LCD_Seg_1.c **** *
 736:.\Generated_Source\PSoC5/LCD_Seg_1.c **** * Global variables:
 737:.\Generated_Source\PSoC5/LCD_Seg_1.c **** *  LCD_Seg_1_lcdTd[] - used to hold a set of allocated TD IDs that are
 738:.\Generated_Source\PSoC5/LCD_Seg_1.c **** *  used by this component which will be released by this function.
 739:.\Generated_Source\PSoC5/LCD_Seg_1.c **** *
 740:.\Generated_Source\PSoC5/LCD_Seg_1.c **** *  LCD_Seg_1_lcdChannel- holds the channel number used by the LCD
 741:.\Generated_Source\PSoC5/LCD_Seg_1.c **** *  component that will be released by this function.
 742:.\Generated_Source\PSoC5/LCD_Seg_1.c **** *
 743:.\Generated_Source\PSoC5/LCD_Seg_1.c **** *  LCD_Seg_1_frameTd[] - used to hold a set of allocated TD IDs that
 744:.\Generated_Source\PSoC5/LCD_Seg_1.c **** *  are used by this component for Frame signal generation, which will be
 745:.\Generated_Source\PSoC5/LCD_Seg_1.c **** *  released by this function.
 746:.\Generated_Source\PSoC5/LCD_Seg_1.c **** *
 747:.\Generated_Source\PSoC5/LCD_Seg_1.c **** * Reentrant:
 748:.\Generated_Source\PSoC5/LCD_Seg_1.c **** *  No.
 749:.\Generated_Source\PSoC5/LCD_Seg_1.c **** *
 750:.\Generated_Source\PSoC5/LCD_Seg_1.c **** *******************************************************************************/
 751:.\Generated_Source\PSoC5/LCD_Seg_1.c **** static void LCD_Seg_1_DmaDispose(void) CYREENTRANT
 752:.\Generated_Source\PSoC5/LCD_Seg_1.c **** {
 753:.\Generated_Source\PSoC5/LCD_Seg_1.c ****     uint8 i;
 754:.\Generated_Source\PSoC5/LCD_Seg_1.c **** 
 755:.\Generated_Source\PSoC5/LCD_Seg_1.c ****     /* Release LCD DMA handle */
 756:.\Generated_Source\PSoC5/LCD_Seg_1.c ****     LCD_Seg_1_Lcd_Dma_DmaRelease();
 757:.\Generated_Source\PSoC5/LCD_Seg_1.c **** 
 758:.\Generated_Source\PSoC5/LCD_Seg_1.c ****     /* Free the LCD DMA channel */
 759:.\Generated_Source\PSoC5/LCD_Seg_1.c ****     (void) CyDmaChFree(LCD_Seg_1_lcdChannel);
 760:.\Generated_Source\PSoC5/LCD_Seg_1.c **** 
 761:.\Generated_Source\PSoC5/LCD_Seg_1.c ****     /* Release LCD Frame DMA handle */
 762:.\Generated_Source\PSoC5/LCD_Seg_1.c ****     LCD_Seg_1_Frame_Dma_DmaRelease();
 763:.\Generated_Source\PSoC5/LCD_Seg_1.c **** 
 764:.\Generated_Source\PSoC5/LCD_Seg_1.c ****     /* Free the channel used in generation Frame signal */
 765:.\Generated_Source\PSoC5/LCD_Seg_1.c ****     (void) CyDmaChFree(LCD_Seg_1_frameChannel);
 766:.\Generated_Source\PSoC5/LCD_Seg_1.c **** 
 767:.\Generated_Source\PSoC5/LCD_Seg_1.c ****     #if(LCD_Seg_1_WAVEFORM_TYPE == LCD_Seg_1__TYPE_A)
 768:.\Generated_Source\PSoC5/LCD_Seg_1.c ****         for(i = 0u; i < 2u; i++)
 769:.\Generated_Source\PSoC5/LCD_Seg_1.c ****         {
 770:.\Generated_Source\PSoC5/LCD_Seg_1.c ****             CyDmaTdFree(LCD_Seg_1_frameTd[i]);
 771:.\Generated_Source\PSoC5/LCD_Seg_1.c ****         }
 772:.\Generated_Source\PSoC5/LCD_Seg_1.c ****     #else
 773:.\Generated_Source\PSoC5/LCD_Seg_1.c ****         for(i = 0u; i < (LCD_Seg_1_COMM_NUM * 2u); i++)
ARM GAS  C:\Users\hari\AppData\Local\Temp\ccc0gtQ0.s 			page 15


 774:.\Generated_Source\PSoC5/LCD_Seg_1.c ****         {
 775:.\Generated_Source\PSoC5/LCD_Seg_1.c ****             CyDmaTdFree(LCD_Seg_1_frameTd[i]);
 776:.\Generated_Source\PSoC5/LCD_Seg_1.c ****         }
 777:.\Generated_Source\PSoC5/LCD_Seg_1.c ****     #endif /* LCD_Seg_1_WAVEFORM_TYPE == LCD_Seg_1__TYPE_A */
 778:.\Generated_Source\PSoC5/LCD_Seg_1.c **** 
 779:.\Generated_Source\PSoC5/LCD_Seg_1.c ****     /* Release all allocated TDs */
 780:.\Generated_Source\PSoC5/LCD_Seg_1.c ****     for(i = 0u; i < (LCD_Seg_1_COMM_NUM * LCD_Seg_1_LCD_TD_SIZE); i++)
 781:.\Generated_Source\PSoC5/LCD_Seg_1.c ****     {
 782:.\Generated_Source\PSoC5/LCD_Seg_1.c ****         CyDmaTdFree(LCD_Seg_1_lcdTd[i]);
 783:.\Generated_Source\PSoC5/LCD_Seg_1.c ****     }
 784:.\Generated_Source\PSoC5/LCD_Seg_1.c **** }
 785:.\Generated_Source\PSoC5/LCD_Seg_1.c **** 
 786:.\Generated_Source\PSoC5/LCD_Seg_1.c **** 
 787:.\Generated_Source\PSoC5/LCD_Seg_1.c **** /*******************************************************************************
 788:.\Generated_Source\PSoC5/LCD_Seg_1.c **** * Function Name: LCD_Seg_1_Start
 789:.\Generated_Source\PSoC5/LCD_Seg_1.c **** ********************************************************************************
 790:.\Generated_Source\PSoC5/LCD_Seg_1.c **** *
 791:.\Generated_Source\PSoC5/LCD_Seg_1.c **** * Summary:
 792:.\Generated_Source\PSoC5/LCD_Seg_1.c **** *  Starts the LCD component, DMA channels, frame buffer and hardware. Does not
 793:.\Generated_Source\PSoC5/LCD_Seg_1.c **** *  clear the frame buffer SRAM if previously defined.
 794:.\Generated_Source\PSoC5/LCD_Seg_1.c **** *
 795:.\Generated_Source\PSoC5/LCD_Seg_1.c **** * Parameters:
 796:.\Generated_Source\PSoC5/LCD_Seg_1.c **** *  None.
 797:.\Generated_Source\PSoC5/LCD_Seg_1.c **** *
 798:.\Generated_Source\PSoC5/LCD_Seg_1.c **** * Return:
 799:.\Generated_Source\PSoC5/LCD_Seg_1.c **** *  Status one of standard status for PSoC3 Component
 800:.\Generated_Source\PSoC5/LCD_Seg_1.c **** *      CYRET_SUCCESS - function completed successfully.
 801:.\Generated_Source\PSoC5/LCD_Seg_1.c **** *      CYRET_LOCKED - the object was locked, already in use. Some of TDs or
 802:.\Generated_Source\PSoC5/LCD_Seg_1.c **** *                     a channel already in use.
 803:.\Generated_Source\PSoC5/LCD_Seg_1.c **** *
 804:.\Generated_Source\PSoC5/LCD_Seg_1.c **** * Global variables:
 805:.\Generated_Source\PSoC5/LCD_Seg_1.c **** *  LCD_Seg_1_initVar - is used to indicate initial configuration of
 806:.\Generated_Source\PSoC5/LCD_Seg_1.c **** *  this component. The variable is initialized to zero and set to 1 the
 807:.\Generated_Source\PSoC5/LCD_Seg_1.c **** *  first time LCD_Seg_1_Start() is called. This allows for component
 808:.\Generated_Source\PSoC5/LCD_Seg_1.c **** *  initialization without re-initialization in all subsequent calls to the
 809:.\Generated_Source\PSoC5/LCD_Seg_1.c **** *  LCD_Seg_1_Start() routine.
 810:.\Generated_Source\PSoC5/LCD_Seg_1.c **** *
 811:.\Generated_Source\PSoC5/LCD_Seg_1.c **** * Reentrant:
 812:.\Generated_Source\PSoC5/LCD_Seg_1.c **** *  No.
 813:.\Generated_Source\PSoC5/LCD_Seg_1.c **** *
 814:.\Generated_Source\PSoC5/LCD_Seg_1.c **** *******************************************************************************/
 815:.\Generated_Source\PSoC5/LCD_Seg_1.c **** uint8 LCD_Seg_1_Start(void) 
 816:.\Generated_Source\PSoC5/LCD_Seg_1.c **** {
 817:.\Generated_Source\PSoC5/LCD_Seg_1.c ****     uint8 status;
 818:.\Generated_Source\PSoC5/LCD_Seg_1.c **** 
 819:.\Generated_Source\PSoC5/LCD_Seg_1.c ****     /* If not Initialized then initialize all required hardware and software */
 820:.\Generated_Source\PSoC5/LCD_Seg_1.c ****     if(LCD_Seg_1_initVar == 0u)
 821:.\Generated_Source\PSoC5/LCD_Seg_1.c ****     {
 822:.\Generated_Source\PSoC5/LCD_Seg_1.c ****         LCD_Seg_1_initVar = 1u;
 823:.\Generated_Source\PSoC5/LCD_Seg_1.c ****         LCD_Seg_1_Init();
 824:.\Generated_Source\PSoC5/LCD_Seg_1.c ****     }
 825:.\Generated_Source\PSoC5/LCD_Seg_1.c **** 
 826:.\Generated_Source\PSoC5/LCD_Seg_1.c ****     status = LCD_Seg_1_Enable();
 827:.\Generated_Source\PSoC5/LCD_Seg_1.c **** 
 828:.\Generated_Source\PSoC5/LCD_Seg_1.c ****     return(status);
 829:.\Generated_Source\PSoC5/LCD_Seg_1.c **** }
 830:.\Generated_Source\PSoC5/LCD_Seg_1.c **** 
ARM GAS  C:\Users\hari\AppData\Local\Temp\ccc0gtQ0.s 			page 16


 831:.\Generated_Source\PSoC5/LCD_Seg_1.c **** 
 832:.\Generated_Source\PSoC5/LCD_Seg_1.c **** /*******************************************************************************
 833:.\Generated_Source\PSoC5/LCD_Seg_1.c **** * Function Name: LCD_Seg_1_Stop
 834:.\Generated_Source\PSoC5/LCD_Seg_1.c **** ********************************************************************************
 835:.\Generated_Source\PSoC5/LCD_Seg_1.c **** *
 836:.\Generated_Source\PSoC5/LCD_Seg_1.c **** * Summary:
 837:.\Generated_Source\PSoC5/LCD_Seg_1.c **** *  Disables the LCD component and DMA channels. Automatically blanks the display
 838:.\Generated_Source\PSoC5/LCD_Seg_1.c **** *  to avoid damage from DC offsets. Does not clear the frame buffer. Also it
 839:.\Generated_Source\PSoC5/LCD_Seg_1.c **** *  turns off the power for the entire LCD system.
 840:.\Generated_Source\PSoC5/LCD_Seg_1.c **** *
 841:.\Generated_Source\PSoC5/LCD_Seg_1.c **** * Parameters:
 842:.\Generated_Source\PSoC5/LCD_Seg_1.c **** *  None.
 843:.\Generated_Source\PSoC5/LCD_Seg_1.c **** *
 844:.\Generated_Source\PSoC5/LCD_Seg_1.c **** * Return:
 845:.\Generated_Source\PSoC5/LCD_Seg_1.c **** *  None.
 846:.\Generated_Source\PSoC5/LCD_Seg_1.c **** *
 847:.\Generated_Source\PSoC5/LCD_Seg_1.c **** *******************************************************************************/
 848:.\Generated_Source\PSoC5/LCD_Seg_1.c **** void LCD_Seg_1_Stop(void) 
 849:.\Generated_Source\PSoC5/LCD_Seg_1.c **** {
 850:.\Generated_Source\PSoC5/LCD_Seg_1.c ****     uint8   interruptState;
 851:.\Generated_Source\PSoC5/LCD_Seg_1.c **** 
 852:.\Generated_Source\PSoC5/LCD_Seg_1.c ****     /* Global UDB disable */
 853:.\Generated_Source\PSoC5/LCD_Seg_1.c ****     LCD_Seg_1_WriteControlReg(0u, (uint8) LCD_Seg_1_CNTL_CLK_EN_MASK);
 854:.\Generated_Source\PSoC5/LCD_Seg_1.c **** 
 855:.\Generated_Source\PSoC5/LCD_Seg_1.c ****     #if(LCD_Seg_1_POWER_MODE != LCD_Seg_1__NO_SLEEP)
 856:.\Generated_Source\PSoC5/LCD_Seg_1.c **** 
 857:.\Generated_Source\PSoC5/LCD_Seg_1.c ****         /* Disable generation of lp_ack signal from UBD to PM */
 858:.\Generated_Source\PSoC5/LCD_Seg_1.c ****         LCD_Seg_1_LCDDAC_CONTROL_REG &= ((uint8) ~LCD_Seg_1_LCDDAC_UDB_LP_EN);
 859:.\Generated_Source\PSoC5/LCD_Seg_1.c **** 
 860:.\Generated_Source\PSoC5/LCD_Seg_1.c ****         /* Disable LCD timer */
 861:.\Generated_Source\PSoC5/LCD_Seg_1.c ****         LCD_Seg_1_TIMER_CONTROL_REG &= ((uint8) ~LCD_Seg_1_TIMER_EN);
 862:.\Generated_Source\PSoC5/LCD_Seg_1.c **** 
 863:.\Generated_Source\PSoC5/LCD_Seg_1.c ****     #endif /* LCD_Seg_1_POWER_MODE != LCD_Seg_1__NO_SLEEP */
 864:.\Generated_Source\PSoC5/LCD_Seg_1.c **** 
 865:.\Generated_Source\PSoC5/LCD_Seg_1.c ****     /* Clear Continous Drive */
 866:.\Generated_Source\PSoC5/LCD_Seg_1.c ****     LCD_Seg_1_LCDDAC_CONTROL_REG &= ((uint8) ~LCD_Seg_1_LCDDAC_CONT_DRIVE);
 867:.\Generated_Source\PSoC5/LCD_Seg_1.c ****     /* Clear Continous Display Blink bit */
 868:.\Generated_Source\PSoC5/LCD_Seg_1.c ****     LCD_Seg_1_LCDDAC_CONTROL_REG &= ((uint8) ~LCD_Seg_1_LCDDRV_DISPLAY_BLNK);
 869:.\Generated_Source\PSoC5/LCD_Seg_1.c ****     /* Clear Continous Bypass Enable bit */
 870:.\Generated_Source\PSoC5/LCD_Seg_1.c ****     LCD_Seg_1_LCDDAC_CONTROL_REG &= ((uint8) ~LCD_Seg_1_LCDDRV_BYPASS_EN);
 871:.\Generated_Source\PSoC5/LCD_Seg_1.c **** 
 872:.\Generated_Source\PSoC5/LCD_Seg_1.c ****     interruptState = CyEnterCriticalSection();
 873:.\Generated_Source\PSoC5/LCD_Seg_1.c **** 
 874:.\Generated_Source\PSoC5/LCD_Seg_1.c ****     /* Disable LCD fixed function HW in PM */
 875:.\Generated_Source\PSoC5/LCD_Seg_1.c ****     LCD_Seg_1_PWR_MGR_REG &= ((uint8) ~LCD_Seg_1_LCD_EN);
 876:.\Generated_Source\PSoC5/LCD_Seg_1.c ****     LCD_Seg_1_PWR_MGR_STBY_REG &= ((uint8) ~LCD_Seg_1_LCD_STBY_EN);
 877:.\Generated_Source\PSoC5/LCD_Seg_1.c **** 
 878:.\Generated_Source\PSoC5/LCD_Seg_1.c ****     CyExitCriticalSection(interruptState);
 879:.\Generated_Source\PSoC5/LCD_Seg_1.c **** 
 880:.\Generated_Source\PSoC5/LCD_Seg_1.c ****     /* Release DMA channels and TDs */
 881:.\Generated_Source\PSoC5/LCD_Seg_1.c ****     LCD_Seg_1_DmaDispose();
 882:.\Generated_Source\PSoC5/LCD_Seg_1.c **** 
 883:.\Generated_Source\PSoC5/LCD_Seg_1.c ****     /* Set off component enable signal and stop all clocks */
 884:.\Generated_Source\PSoC5/LCD_Seg_1.c ****     LCD_Seg_1_Int_Clock_Disable();
 885:.\Generated_Source\PSoC5/LCD_Seg_1.c **** }
 886:.\Generated_Source\PSoC5/LCD_Seg_1.c **** 
 887:.\Generated_Source\PSoC5/LCD_Seg_1.c **** 
ARM GAS  C:\Users\hari\AppData\Local\Temp\ccc0gtQ0.s 			page 17


 888:.\Generated_Source\PSoC5/LCD_Seg_1.c **** /*******************************************************************************
 889:.\Generated_Source\PSoC5/LCD_Seg_1.c **** * Function Name: LCD_Seg_1_EnableInt
 890:.\Generated_Source\PSoC5/LCD_Seg_1.c **** ********************************************************************************
 891:.\Generated_Source\PSoC5/LCD_Seg_1.c **** *
 892:.\Generated_Source\PSoC5/LCD_Seg_1.c **** * Summary:
 893:.\Generated_Source\PSoC5/LCD_Seg_1.c **** *  Enables the LCD "every subframe" and LCD wakeup interrupts.
 894:.\Generated_Source\PSoC5/LCD_Seg_1.c **** *
 895:.\Generated_Source\PSoC5/LCD_Seg_1.c **** * Parameters:
 896:.\Generated_Source\PSoC5/LCD_Seg_1.c **** *  None.
 897:.\Generated_Source\PSoC5/LCD_Seg_1.c **** *
 898:.\Generated_Source\PSoC5/LCD_Seg_1.c **** * Return:
 899:.\Generated_Source\PSoC5/LCD_Seg_1.c **** *  None.
 900:.\Generated_Source\PSoC5/LCD_Seg_1.c **** *
 901:.\Generated_Source\PSoC5/LCD_Seg_1.c **** * Theory:
 902:.\Generated_Source\PSoC5/LCD_Seg_1.c **** *  When you using PSoC5 LP it is required to have an interrupt with an ISR 
 903:.\Generated_Source\PSoC5/LCD_Seg_1.c **** *  (even if it is empty) to wakeup CPU from sleep. It is specific of PSoC5 LP
 904:.\Generated_Source\PSoC5/LCD_Seg_1.c **** *  CPU that uses "wait for interrupt" command when it enters into a sleep and
 905:.\Generated_Source\PSoC5/LCD_Seg_1.c **** *  it won't wakeup if there won't be an actual interrupt. This API shoul always 
 906:.\Generated_Source\PSoC5/LCD_Seg_1.c **** *  be called when component's operation in sleep is desired. 
 907:.\Generated_Source\PSoC5/LCD_Seg_1.c **** *
 908:.\Generated_Source\PSoC5/LCD_Seg_1.c **** *******************************************************************************/
 909:.\Generated_Source\PSoC5/LCD_Seg_1.c **** void LCD_Seg_1_EnableInt(void) 
 910:.\Generated_Source\PSoC5/LCD_Seg_1.c **** {
 911:.\Generated_Source\PSoC5/LCD_Seg_1.c ****     /* Enable every sub-frame interrupt */
 912:.\Generated_Source\PSoC5/LCD_Seg_1.c ****     CyIntEnable(LCD_Seg_1_ISR_NUMBER);
 913:.\Generated_Source\PSoC5/LCD_Seg_1.c ****     
 914:.\Generated_Source\PSoC5/LCD_Seg_1.c ****     #if(CY_PSOC5LP)
 915:.\Generated_Source\PSoC5/LCD_Seg_1.c ****     
 916:.\Generated_Source\PSoC5/LCD_Seg_1.c ****         /* Enable Wakeup ISR interrupt */
 917:.\Generated_Source\PSoC5/LCD_Seg_1.c ****         CyIntEnable(LCD_Seg_1_WAKEUP_ISR_NUMBER);
 918:.\Generated_Source\PSoC5/LCD_Seg_1.c ****     
 919:.\Generated_Source\PSoC5/LCD_Seg_1.c ****     #endif /* CY_PSOC5LP */
 920:.\Generated_Source\PSoC5/LCD_Seg_1.c **** }
 921:.\Generated_Source\PSoC5/LCD_Seg_1.c **** 
 922:.\Generated_Source\PSoC5/LCD_Seg_1.c **** 
 923:.\Generated_Source\PSoC5/LCD_Seg_1.c **** /*******************************************************************************
 924:.\Generated_Source\PSoC5/LCD_Seg_1.c **** * Function Name: LCD_Seg_1_DisableInt
 925:.\Generated_Source\PSoC5/LCD_Seg_1.c **** ********************************************************************************
 926:.\Generated_Source\PSoC5/LCD_Seg_1.c **** *
 927:.\Generated_Source\PSoC5/LCD_Seg_1.c **** * Summary:
 928:.\Generated_Source\PSoC5/LCD_Seg_1.c **** *  Disables the LCD "every subframe" and LCD wakeup interrupt.
 929:.\Generated_Source\PSoC5/LCD_Seg_1.c **** *
 930:.\Generated_Source\PSoC5/LCD_Seg_1.c **** * Parameters:
 931:.\Generated_Source\PSoC5/LCD_Seg_1.c **** *  None.
 932:.\Generated_Source\PSoC5/LCD_Seg_1.c **** *
 933:.\Generated_Source\PSoC5/LCD_Seg_1.c **** * Return:
 934:.\Generated_Source\PSoC5/LCD_Seg_1.c **** *  None.
 935:.\Generated_Source\PSoC5/LCD_Seg_1.c **** *
 936:.\Generated_Source\PSoC5/LCD_Seg_1.c **** *******************************************************************************/
 937:.\Generated_Source\PSoC5/LCD_Seg_1.c **** void LCD_Seg_1_DisableInt(void) 
 938:.\Generated_Source\PSoC5/LCD_Seg_1.c **** {
 939:.\Generated_Source\PSoC5/LCD_Seg_1.c ****     /* Disable every sub-frame interrupt */
 940:.\Generated_Source\PSoC5/LCD_Seg_1.c ****     CyIntDisable(LCD_Seg_1_ISR_NUMBER);
 941:.\Generated_Source\PSoC5/LCD_Seg_1.c ****     
 942:.\Generated_Source\PSoC5/LCD_Seg_1.c ****     #if(CY_PSOC5LP)
 943:.\Generated_Source\PSoC5/LCD_Seg_1.c ****     
 944:.\Generated_Source\PSoC5/LCD_Seg_1.c ****         /* Disable Wakeup ISR interrupt */
ARM GAS  C:\Users\hari\AppData\Local\Temp\ccc0gtQ0.s 			page 18


 945:.\Generated_Source\PSoC5/LCD_Seg_1.c ****         CyIntDisable(LCD_Seg_1_WAKEUP_ISR_NUMBER);
 946:.\Generated_Source\PSoC5/LCD_Seg_1.c ****     
 947:.\Generated_Source\PSoC5/LCD_Seg_1.c ****     #endif /* CY_PSOC5LP */
 948:.\Generated_Source\PSoC5/LCD_Seg_1.c **** }
 949:.\Generated_Source\PSoC5/LCD_Seg_1.c **** 
 950:.\Generated_Source\PSoC5/LCD_Seg_1.c **** 
 951:.\Generated_Source\PSoC5/LCD_Seg_1.c **** /*******************************************************************************
 952:.\Generated_Source\PSoC5/LCD_Seg_1.c **** * Function Name: LCD_Seg_1_SetBias
 953:.\Generated_Source\PSoC5/LCD_Seg_1.c **** ********************************************************************************
 954:.\Generated_Source\PSoC5/LCD_Seg_1.c **** *
 955:.\Generated_Source\PSoC5/LCD_Seg_1.c **** * Summary:
 956:.\Generated_Source\PSoC5/LCD_Seg_1.c **** *  This function sets the bias level for the LCD glass to one of up to 64
 957:.\Generated_Source\PSoC5/LCD_Seg_1.c **** *  values. The actual number of values is limited by the Analog supply voltage
 958:.\Generated_Source\PSoC5/LCD_Seg_1.c **** *  Vdda as the bias voltage can not exceed Vdda. Changing the bias level affects
 959:.\Generated_Source\PSoC5/LCD_Seg_1.c **** *  the LCD contrast.
 960:.\Generated_Source\PSoC5/LCD_Seg_1.c **** *
 961:.\Generated_Source\PSoC5/LCD_Seg_1.c **** * Parameters:
 962:.\Generated_Source\PSoC5/LCD_Seg_1.c **** *  biasLevel : bias level for the diplay.
 963:.\Generated_Source\PSoC5/LCD_Seg_1.c **** *
 964:.\Generated_Source\PSoC5/LCD_Seg_1.c **** * Return:
 965:.\Generated_Source\PSoC5/LCD_Seg_1.c **** *  Status one of standard status for PSoC3 Component:
 966:.\Generated_Source\PSoC5/LCD_Seg_1.c **** *      CYRET_SUCCESS - function completed successfully.
 967:.\Generated_Source\PSoC5/LCD_Seg_1.c **** *      CYRET_BAD_PARAM - evaluation of biasLevel parameter is failed.
 968:.\Generated_Source\PSoC5/LCD_Seg_1.c **** *
 969:.\Generated_Source\PSoC5/LCD_Seg_1.c **** *******************************************************************************/
 970:.\Generated_Source\PSoC5/LCD_Seg_1.c **** uint8 LCD_Seg_1_SetBias(uint8 biasLevel) 
 971:.\Generated_Source\PSoC5/LCD_Seg_1.c **** {
 972:.\Generated_Source\PSoC5/LCD_Seg_1.c ****     uint8 status;
 973:.\Generated_Source\PSoC5/LCD_Seg_1.c **** 
 974:.\Generated_Source\PSoC5/LCD_Seg_1.c ****     if(biasLevel < 64u)
 975:.\Generated_Source\PSoC5/LCD_Seg_1.c ****     {
 976:.\Generated_Source\PSoC5/LCD_Seg_1.c ****         LCD_Seg_1_CONTRAST_CONTROL_REG = biasLevel;
 977:.\Generated_Source\PSoC5/LCD_Seg_1.c ****         status = CYRET_SUCCESS;
 978:.\Generated_Source\PSoC5/LCD_Seg_1.c ****     }
 979:.\Generated_Source\PSoC5/LCD_Seg_1.c ****     else
 980:.\Generated_Source\PSoC5/LCD_Seg_1.c ****     {
 981:.\Generated_Source\PSoC5/LCD_Seg_1.c ****         status = CYRET_BAD_PARAM;
 982:.\Generated_Source\PSoC5/LCD_Seg_1.c ****     }
 983:.\Generated_Source\PSoC5/LCD_Seg_1.c **** 
 984:.\Generated_Source\PSoC5/LCD_Seg_1.c ****     return(status);
 985:.\Generated_Source\PSoC5/LCD_Seg_1.c **** }
 986:.\Generated_Source\PSoC5/LCD_Seg_1.c **** 
 987:.\Generated_Source\PSoC5/LCD_Seg_1.c **** 
 988:.\Generated_Source\PSoC5/LCD_Seg_1.c **** /*******************************************************************************
 989:.\Generated_Source\PSoC5/LCD_Seg_1.c **** * Function Name: LCD_Seg_1_WriteInvertState
 990:.\Generated_Source\PSoC5/LCD_Seg_1.c **** ********************************************************************************
 991:.\Generated_Source\PSoC5/LCD_Seg_1.c **** *
 992:.\Generated_Source\PSoC5/LCD_Seg_1.c **** * Summary:
 993:.\Generated_Source\PSoC5/LCD_Seg_1.c **** *  This function inverts the display based on invertState.
 994:.\Generated_Source\PSoC5/LCD_Seg_1.c **** *
 995:.\Generated_Source\PSoC5/LCD_Seg_1.c **** * Parameters:
 996:.\Generated_Source\PSoC5/LCD_Seg_1.c **** *  invertState: the values can be - 0 (#LCD_Seg_1_NORMAL_STATE) for
 997:.\Generated_Source\PSoC5/LCD_Seg_1.c **** *               normal noninverted display and 1
 998:.\Generated_Source\PSoC5/LCD_Seg_1.c **** *                (#LCD_Seg_1_INVERTED_STATE) for inverted display.
 999:.\Generated_Source\PSoC5/LCD_Seg_1.c **** *
1000:.\Generated_Source\PSoC5/LCD_Seg_1.c **** * Return:
1001:.\Generated_Source\PSoC5/LCD_Seg_1.c **** *  Status one of standard status for PSoC3 Component:
ARM GAS  C:\Users\hari\AppData\Local\Temp\ccc0gtQ0.s 			page 19


1002:.\Generated_Source\PSoC5/LCD_Seg_1.c **** *      CYRET_SUCCESS - function completed successfully.
1003:.\Generated_Source\PSoC5/LCD_Seg_1.c **** *      CYRET_BAD_PARAM - evaluation of invertState parameter is failed.
1004:.\Generated_Source\PSoC5/LCD_Seg_1.c **** *
1005:.\Generated_Source\PSoC5/LCD_Seg_1.c **** * Theory:
1006:.\Generated_Source\PSoC5/LCD_Seg_1.c **** *  This function enables hardware invertor which inverts the data on the
1007:.\Generated_Source\PSoC5/LCD_Seg_1.c **** *  outputs of port data registers. As the inversion occurs on all outputs no
1008:.\Generated_Source\PSoC5/LCD_Seg_1.c **** *  mater is this a common or segment pin the frame buffer data for commons
1009:.\Generated_Source\PSoC5/LCD_Seg_1.c **** *  requires to be changed to prevent DC ofsset in the LCD. So depending on the
1010:.\Generated_Source\PSoC5/LCD_Seg_1.c **** *  function argument commons are initialized in the proper way.
1011:.\Generated_Source\PSoC5/LCD_Seg_1.c **** *
1012:.\Generated_Source\PSoC5/LCD_Seg_1.c **** *******************************************************************************/
1013:.\Generated_Source\PSoC5/LCD_Seg_1.c **** uint8 LCD_Seg_1_WriteInvertState(uint8 invertState) 
1014:.\Generated_Source\PSoC5/LCD_Seg_1.c **** {
1015:.\Generated_Source\PSoC5/LCD_Seg_1.c ****     uint8 status;
1016:.\Generated_Source\PSoC5/LCD_Seg_1.c ****     uint8 pixelState;
1017:.\Generated_Source\PSoC5/LCD_Seg_1.c ****     uint16 pixelNumber;
1018:.\Generated_Source\PSoC5/LCD_Seg_1.c ****     uint16 j;
1019:.\Generated_Source\PSoC5/LCD_Seg_1.c ****     uint8 i;
1020:.\Generated_Source\PSoC5/LCD_Seg_1.c **** 
1021:.\Generated_Source\PSoC5/LCD_Seg_1.c ****     /* If parameter is valid then procced with driver control register write
1022:.\Generated_Source\PSoC5/LCD_Seg_1.c ****     * operation, we don't want to affect other bits then invert bit.
1023:.\Generated_Source\PSoC5/LCD_Seg_1.c ****     */
1024:.\Generated_Source\PSoC5/LCD_Seg_1.c ****     if(invertState <= LCD_Seg_1_INVERTED_STATE)
1025:.\Generated_Source\PSoC5/LCD_Seg_1.c ****     {
1026:.\Generated_Source\PSoC5/LCD_Seg_1.c ****         if(invertState == LCD_Seg_1_NORMAL_STATE)
1027:.\Generated_Source\PSoC5/LCD_Seg_1.c ****         {
1028:.\Generated_Source\PSoC5/LCD_Seg_1.c ****             pixelState = LCD_Seg_1_PIXEL_STATE_OFF;
1029:.\Generated_Source\PSoC5/LCD_Seg_1.c ****         }
1030:.\Generated_Source\PSoC5/LCD_Seg_1.c ****         else
1031:.\Generated_Source\PSoC5/LCD_Seg_1.c ****         {
1032:.\Generated_Source\PSoC5/LCD_Seg_1.c ****             pixelState = LCD_Seg_1_PIXEL_STATE_ON;
1033:.\Generated_Source\PSoC5/LCD_Seg_1.c ****         }
1034:.\Generated_Source\PSoC5/LCD_Seg_1.c **** 
1035:.\Generated_Source\PSoC5/LCD_Seg_1.c ****         #if defined(LCD_Seg_1_GANG)
1036:.\Generated_Source\PSoC5/LCD_Seg_1.c **** 
1037:.\Generated_Source\PSoC5/LCD_Seg_1.c ****             for(i = 0u; i < LCD_Seg_1_COMM_NUM; i++)
1038:.\Generated_Source\PSoC5/LCD_Seg_1.c ****             {
1039:.\Generated_Source\PSoC5/LCD_Seg_1.c ****                 pixelNumber = LCD_Seg_1_gCommons[i];
1040:.\Generated_Source\PSoC5/LCD_Seg_1.c **** 
1041:.\Generated_Source\PSoC5/LCD_Seg_1.c ****                 for(j = 0u; j < LCD_Seg_1_COMM_NUM; j++)
1042:.\Generated_Source\PSoC5/LCD_Seg_1.c ****                 {
1043:.\Generated_Source\PSoC5/LCD_Seg_1.c ****                     pixelNumber = (pixelNumber & ((uint16) ~LCD_Seg_1_ROW_MASK)) | 
1044:.\Generated_Source\PSoC5/LCD_Seg_1.c ****                                   (((uint16) j) << LCD_Seg_1_ROW_SHIFT);
1045:.\Generated_Source\PSoC5/LCD_Seg_1.c ****                     
1046:.\Generated_Source\PSoC5/LCD_Seg_1.c ****                     LCD_Seg_1_WRITE_PIXEL(pixelNumber, pixelState);
1047:.\Generated_Source\PSoC5/LCD_Seg_1.c ****                 }
1048:.\Generated_Source\PSoC5/LCD_Seg_1.c ****             }
1049:.\Generated_Source\PSoC5/LCD_Seg_1.c **** 
1050:.\Generated_Source\PSoC5/LCD_Seg_1.c ****             for(i = 0u; i < LCD_Seg_1_COMM_NUM; i++)
1051:.\Generated_Source\PSoC5/LCD_Seg_1.c ****             {
1052:.\Generated_Source\PSoC5/LCD_Seg_1.c ****                 LCD_Seg_1_WRITE_PIXEL(LCD_Seg_1_gCommons[i],
1053:.\Generated_Source\PSoC5/LCD_Seg_1.c ****                                             (((uint8) ~pixelState) & ((uint8)LCD_Seg_1_STATE_MASK))
1054:.\Generated_Source\PSoC5/LCD_Seg_1.c ****             }
1055:.\Generated_Source\PSoC5/LCD_Seg_1.c **** 
1056:.\Generated_Source\PSoC5/LCD_Seg_1.c ****         #endif /* LCD_Seg_1_GANG */
1057:.\Generated_Source\PSoC5/LCD_Seg_1.c **** 
1058:.\Generated_Source\PSoC5/LCD_Seg_1.c ****         for(i = 0u; i < LCD_Seg_1_COMM_NUM; i++)
ARM GAS  C:\Users\hari\AppData\Local\Temp\ccc0gtQ0.s 			page 20


1059:.\Generated_Source\PSoC5/LCD_Seg_1.c ****         {
1060:.\Generated_Source\PSoC5/LCD_Seg_1.c ****             pixelNumber = LCD_Seg_1_commons[i];
1061:.\Generated_Source\PSoC5/LCD_Seg_1.c **** 
1062:.\Generated_Source\PSoC5/LCD_Seg_1.c ****             for(j = 0u; j < LCD_Seg_1_COMM_NUM; j++)
1063:.\Generated_Source\PSoC5/LCD_Seg_1.c ****             {
1064:.\Generated_Source\PSoC5/LCD_Seg_1.c ****                 pixelNumber =  (pixelNumber & ((uint16)~LCD_Seg_1_ROW_MASK)) | 
1065:.\Generated_Source\PSoC5/LCD_Seg_1.c ****                                (((uint16) j) << LCD_Seg_1_ROW_SHIFT);
1066:.\Generated_Source\PSoC5/LCD_Seg_1.c ****                 
1067:.\Generated_Source\PSoC5/LCD_Seg_1.c ****                 LCD_Seg_1_WRITE_PIXEL(pixelNumber, pixelState);
1068:.\Generated_Source\PSoC5/LCD_Seg_1.c ****             }
1069:.\Generated_Source\PSoC5/LCD_Seg_1.c ****         }
1070:.\Generated_Source\PSoC5/LCD_Seg_1.c **** 
1071:.\Generated_Source\PSoC5/LCD_Seg_1.c ****         /* Reinitialize the commons */
1072:.\Generated_Source\PSoC5/LCD_Seg_1.c ****         for(i = 0u; i < LCD_Seg_1_COMM_NUM; i++)
1073:.\Generated_Source\PSoC5/LCD_Seg_1.c ****         {
1074:.\Generated_Source\PSoC5/LCD_Seg_1.c ****             LCD_Seg_1_WRITE_PIXEL(LCD_Seg_1_commons[i],
1075:.\Generated_Source\PSoC5/LCD_Seg_1.c ****                                         (((uint8)~pixelState) & ((uint8)LCD_Seg_1_STATE_MASK)));
1076:.\Generated_Source\PSoC5/LCD_Seg_1.c ****         }
1077:.\Generated_Source\PSoC5/LCD_Seg_1.c **** 
1078:.\Generated_Source\PSoC5/LCD_Seg_1.c ****         LCD_Seg_1_DRIVER_CONTROL_REG = (LCD_Seg_1_DRIVER_CONTROL_REG & 
1079:.\Generated_Source\PSoC5/LCD_Seg_1.c ****                                               ((uint8)LCD_Seg_1_STATE_MASK)) | 
1080:.\Generated_Source\PSoC5/LCD_Seg_1.c ****                                               ((uint8)(invertState << LCD_Seg_1_INVERT_SHIFT));
1081:.\Generated_Source\PSoC5/LCD_Seg_1.c **** 
1082:.\Generated_Source\PSoC5/LCD_Seg_1.c ****         status = CYRET_SUCCESS;
1083:.\Generated_Source\PSoC5/LCD_Seg_1.c ****     }
1084:.\Generated_Source\PSoC5/LCD_Seg_1.c ****     else
1085:.\Generated_Source\PSoC5/LCD_Seg_1.c ****     {
1086:.\Generated_Source\PSoC5/LCD_Seg_1.c ****         status = CYRET_BAD_PARAM;
1087:.\Generated_Source\PSoC5/LCD_Seg_1.c ****     }
1088:.\Generated_Source\PSoC5/LCD_Seg_1.c **** 
1089:.\Generated_Source\PSoC5/LCD_Seg_1.c ****     return(status);
1090:.\Generated_Source\PSoC5/LCD_Seg_1.c **** }
1091:.\Generated_Source\PSoC5/LCD_Seg_1.c **** 
1092:.\Generated_Source\PSoC5/LCD_Seg_1.c **** 
1093:.\Generated_Source\PSoC5/LCD_Seg_1.c **** /*******************************************************************************
1094:.\Generated_Source\PSoC5/LCD_Seg_1.c **** * Function Name: LCD_Seg_1_ReadInvertState
1095:.\Generated_Source\PSoC5/LCD_Seg_1.c **** ********************************************************************************
1096:.\Generated_Source\PSoC5/LCD_Seg_1.c **** *
1097:.\Generated_Source\PSoC5/LCD_Seg_1.c **** * Summary:
1098:.\Generated_Source\PSoC5/LCD_Seg_1.c **** *  This function returns the current normal or inverted state of the display.
1099:.\Generated_Source\PSoC5/LCD_Seg_1.c **** *
1100:.\Generated_Source\PSoC5/LCD_Seg_1.c **** * Parameters:
1101:.\Generated_Source\PSoC5/LCD_Seg_1.c **** *  None.
1102:.\Generated_Source\PSoC5/LCD_Seg_1.c **** *
1103:.\Generated_Source\PSoC5/LCD_Seg_1.c **** * Return:
1104:.\Generated_Source\PSoC5/LCD_Seg_1.c **** *  State of the LCD - 0(#LCD_Seg_1_NORMAL_STATE) for normal non-inverted
1105:.\Generated_Source\PSoC5/LCD_Seg_1.c **** *  display and 1(#LCD_Seg_1_INVERTED_STATE) for inverted display.
1106:.\Generated_Source\PSoC5/LCD_Seg_1.c **** *
1107:.\Generated_Source\PSoC5/LCD_Seg_1.c **** *******************************************************************************/
1108:.\Generated_Source\PSoC5/LCD_Seg_1.c **** uint8 LCD_Seg_1_ReadInvertState(void) 
1109:.\Generated_Source\PSoC5/LCD_Seg_1.c **** {
1110:.\Generated_Source\PSoC5/LCD_Seg_1.c ****     /* Get only invert bit of Driver Control Register */
1111:.\Generated_Source\PSoC5/LCD_Seg_1.c ****     return((LCD_Seg_1_DRIVER_CONTROL_REG & LCD_Seg_1_INVERT_BIT_MASK) >> LCD_Seg_1_INVERT_SHIFT);
1112:.\Generated_Source\PSoC5/LCD_Seg_1.c **** }
1113:.\Generated_Source\PSoC5/LCD_Seg_1.c **** 
1114:.\Generated_Source\PSoC5/LCD_Seg_1.c **** 
1115:.\Generated_Source\PSoC5/LCD_Seg_1.c **** /*******************************************************************************
ARM GAS  C:\Users\hari\AppData\Local\Temp\ccc0gtQ0.s 			page 21


1116:.\Generated_Source\PSoC5/LCD_Seg_1.c **** * Function Name: LCD_Seg_1_ClearDisplay
1117:.\Generated_Source\PSoC5/LCD_Seg_1.c **** ********************************************************************************
1118:.\Generated_Source\PSoC5/LCD_Seg_1.c **** *
1119:.\Generated_Source\PSoC5/LCD_Seg_1.c **** * Summary:
1120:.\Generated_Source\PSoC5/LCD_Seg_1.c **** *  This function clears the display RAM of the frame buffer.
1121:.\Generated_Source\PSoC5/LCD_Seg_1.c **** *
1122:.\Generated_Source\PSoC5/LCD_Seg_1.c **** * Parameters:
1123:.\Generated_Source\PSoC5/LCD_Seg_1.c **** *  None.
1124:.\Generated_Source\PSoC5/LCD_Seg_1.c **** *
1125:.\Generated_Source\PSoC5/LCD_Seg_1.c **** * Return:
1126:.\Generated_Source\PSoC5/LCD_Seg_1.c **** *  None.
1127:.\Generated_Source\PSoC5/LCD_Seg_1.c **** *
1128:.\Generated_Source\PSoC5/LCD_Seg_1.c **** * Global variables:
1129:.\Generated_Source\PSoC5/LCD_Seg_1.c **** *  LCD_Seg_1_buffer[] - an array is modified by this API. Clears the
1130:.\Generated_Source\PSoC5/LCD_Seg_1.c **** *  frame buffer to all zeroes and then reinitialize it with a 1 in the
1131:.\Generated_Source\PSoC5/LCD_Seg_1.c **** *  locations specified by the values from LCD_Seg_1_commons[].
1132:.\Generated_Source\PSoC5/LCD_Seg_1.c **** *
1133:.\Generated_Source\PSoC5/LCD_Seg_1.c **** *  LCD_Seg_1_commons[] - holds the pixel locations for common lines.
1134:.\Generated_Source\PSoC5/LCD_Seg_1.c **** *
1135:.\Generated_Source\PSoC5/LCD_Seg_1.c **** * Reentrant:
1136:.\Generated_Source\PSoC5/LCD_Seg_1.c **** *  No.
1137:.\Generated_Source\PSoC5/LCD_Seg_1.c **** *
1138:.\Generated_Source\PSoC5/LCD_Seg_1.c **** *******************************************************************************/
1139:.\Generated_Source\PSoC5/LCD_Seg_1.c **** void LCD_Seg_1_ClearDisplay(void) 
1140:.\Generated_Source\PSoC5/LCD_Seg_1.c **** {
1141:.\Generated_Source\PSoC5/LCD_Seg_1.c ****     uint16 i;
1142:.\Generated_Source\PSoC5/LCD_Seg_1.c ****     uint8 dispState;
1143:.\Generated_Source\PSoC5/LCD_Seg_1.c **** 
1144:.\Generated_Source\PSoC5/LCD_Seg_1.c ****     /* Clear entire frame buffer to all zeroes */
1145:.\Generated_Source\PSoC5/LCD_Seg_1.c ****     for(i = 0u; i < LCD_Seg_1_BUFFER_LENGTH; i++)
1146:.\Generated_Source\PSoC5/LCD_Seg_1.c ****     {
1147:.\Generated_Source\PSoC5/LCD_Seg_1.c ****         LCD_Seg_1_buffer[i] = 0u;
1148:.\Generated_Source\PSoC5/LCD_Seg_1.c ****     }
1149:.\Generated_Source\PSoC5/LCD_Seg_1.c **** 
1150:.\Generated_Source\PSoC5/LCD_Seg_1.c ****     /* Reinitialize the commons */
1151:.\Generated_Source\PSoC5/LCD_Seg_1.c ****     for(i = 0u; i < LCD_Seg_1_COMM_NUM; i++)
1152:.\Generated_Source\PSoC5/LCD_Seg_1.c ****     {
1153:.\Generated_Source\PSoC5/LCD_Seg_1.c ****         #ifdef LCD_Seg_1_GANG
1154:.\Generated_Source\PSoC5/LCD_Seg_1.c ****             LCD_Seg_1_WRITE_PIXEL(LCD_Seg_1_gCommons[i], LCD_Seg_1_PIXEL_STATE_ON);
1155:.\Generated_Source\PSoC5/LCD_Seg_1.c ****         #endif /* LCD_Seg_1_GANG */
1156:.\Generated_Source\PSoC5/LCD_Seg_1.c **** 
1157:.\Generated_Source\PSoC5/LCD_Seg_1.c ****         LCD_Seg_1_WRITE_PIXEL(LCD_Seg_1_commons[i], LCD_Seg_1_PIXEL_STATE_ON);
1158:.\Generated_Source\PSoC5/LCD_Seg_1.c ****     }
1159:.\Generated_Source\PSoC5/LCD_Seg_1.c **** 
1160:.\Generated_Source\PSoC5/LCD_Seg_1.c ****     /* Read invert state. */
1161:.\Generated_Source\PSoC5/LCD_Seg_1.c ****     dispState = (uint8)(((uint8)(LCD_Seg_1_DRIVER_CONTROL_REG &((uint8) ~LCD_Seg_1_STATE_MASK))) >>
1162:.\Generated_Source\PSoC5/LCD_Seg_1.c ****                 LCD_Seg_1_INVERT_SHIFT);
1163:.\Generated_Source\PSoC5/LCD_Seg_1.c **** 
1164:.\Generated_Source\PSoC5/LCD_Seg_1.c ****     /* If we were in inverted state before the display was cleared, then we must
1165:.\Generated_Source\PSoC5/LCD_Seg_1.c ****     * call WriteInvertState() as there is no separate API to clear inverted
1166:.\Generated_Source\PSoC5/LCD_Seg_1.c ****     * display.
1167:.\Generated_Source\PSoC5/LCD_Seg_1.c ****     */
1168:.\Generated_Source\PSoC5/LCD_Seg_1.c ****     if(dispState == LCD_Seg_1_INVERTED_STATE)
1169:.\Generated_Source\PSoC5/LCD_Seg_1.c ****     {
1170:.\Generated_Source\PSoC5/LCD_Seg_1.c ****         (void) LCD_Seg_1_WriteInvertState(dispState);
1171:.\Generated_Source\PSoC5/LCD_Seg_1.c ****     }
1172:.\Generated_Source\PSoC5/LCD_Seg_1.c **** }
ARM GAS  C:\Users\hari\AppData\Local\Temp\ccc0gtQ0.s 			page 22


1173:.\Generated_Source\PSoC5/LCD_Seg_1.c **** 
1174:.\Generated_Source\PSoC5/LCD_Seg_1.c **** 
1175:.\Generated_Source\PSoC5/LCD_Seg_1.c **** /*******************************************************************************
1176:.\Generated_Source\PSoC5/LCD_Seg_1.c **** * Function Name: LCD_Seg_1_WritePixel
1177:.\Generated_Source\PSoC5/LCD_Seg_1.c **** ********************************************************************************
1178:.\Generated_Source\PSoC5/LCD_Seg_1.c **** *
1179:.\Generated_Source\PSoC5/LCD_Seg_1.c **** * Summary:
1180:.\Generated_Source\PSoC5/LCD_Seg_1.c **** *  This function sets or clears a pixel based on pixelState in a frame buffer.
1181:.\Generated_Source\PSoC5/LCD_Seg_1.c **** *  The Pixel is addressed by a packed number. User code can also directly write
1182:.\Generated_Source\PSoC5/LCD_Seg_1.c **** *  the frame buffer RAM to create optimized interactions.
1183:.\Generated_Source\PSoC5/LCD_Seg_1.c **** *
1184:.\Generated_Source\PSoC5/LCD_Seg_1.c **** * Parameters:
1185:.\Generated_Source\PSoC5/LCD_Seg_1.c **** *  pixelNumber: is the packed number that points to the pixel's location in the
1186:.\Generated_Source\PSoC5/LCD_Seg_1.c **** *               frame buffer. The lowest three bits in the LSB low nibble are
1187:.\Generated_Source\PSoC5/LCD_Seg_1.c **** *               the bit position in the byte, the LSB upper nibble (4 bits) is
1188:.\Generated_Source\PSoC5/LCD_Seg_1.c **** *               the byte address in the multiplex row and the MSB low nibble
1189:.\Generated_Source\PSoC5/LCD_Seg_1.c **** *               (4 bits) is the multiplex row number.
1190:.\Generated_Source\PSoC5/LCD_Seg_1.c **** *  pixelState: 0 for pixel off,1 for pixel on, 2 for pixel invert.
1191:.\Generated_Source\PSoC5/LCD_Seg_1.c **** *
1192:.\Generated_Source\PSoC5/LCD_Seg_1.c **** * Return:
1193:.\Generated_Source\PSoC5/LCD_Seg_1.c **** *  Status one of standard status for PSoC3 Component:
1194:.\Generated_Source\PSoC5/LCD_Seg_1.c **** *      CYRET_SUCCESS - function completed successfully.
1195:.\Generated_Source\PSoC5/LCD_Seg_1.c **** *      CYRET_BAD_PARAM - evaluation of parameters is failed.
1196:.\Generated_Source\PSoC5/LCD_Seg_1.c **** *
1197:.\Generated_Source\PSoC5/LCD_Seg_1.c **** * Global variables:
1198:.\Generated_Source\PSoC5/LCD_Seg_1.c **** *  LCD_Seg_1_buffer[] - an array is modified by this API. This API
1199:.\Generated_Source\PSoC5/LCD_Seg_1.c **** *  may set or clear certain bit in the array defined by the input parameter.
1200:.\Generated_Source\PSoC5/LCD_Seg_1.c **** *
1201:.\Generated_Source\PSoC5/LCD_Seg_1.c **** * Reentrant:
1202:.\Generated_Source\PSoC5/LCD_Seg_1.c **** *  No.
1203:.\Generated_Source\PSoC5/LCD_Seg_1.c **** *
1204:.\Generated_Source\PSoC5/LCD_Seg_1.c **** *******************************************************************************/
1205:.\Generated_Source\PSoC5/LCD_Seg_1.c **** uint8 LCD_Seg_1_WritePixel(uint16 pixelNumber, uint8 pixelState) 
1206:.\Generated_Source\PSoC5/LCD_Seg_1.c **** {
1207:.\Generated_Source\PSoC5/LCD_Seg_1.c ****     uint8 mask;
1208:.\Generated_Source\PSoC5/LCD_Seg_1.c ****     uint8 row;
1209:.\Generated_Source\PSoC5/LCD_Seg_1.c ****     uint8 port;
1210:.\Generated_Source\PSoC5/LCD_Seg_1.c ****     uint8 pin;
1211:.\Generated_Source\PSoC5/LCD_Seg_1.c ****     uint8 status;
1212:.\Generated_Source\PSoC5/LCD_Seg_1.c **** 
1213:.\Generated_Source\PSoC5/LCD_Seg_1.c ****     if((LCD_Seg_1_NOT_CON != pixelNumber) || (!(pixelState > LCD_Seg_1_PIXEL_STATE_INVERT)))
1214:.\Generated_Source\PSoC5/LCD_Seg_1.c ****     {
1215:.\Generated_Source\PSoC5/LCD_Seg_1.c ****         if(pixelState == LCD_Seg_1_PIXEL_STATE_INVERT)
1216:.\Generated_Source\PSoC5/LCD_Seg_1.c ****         {
1217:.\Generated_Source\PSoC5/LCD_Seg_1.c ****             /* Invert actual pixel state */
1218:.\Generated_Source\PSoC5/LCD_Seg_1.c ****             pixelState = LCD_Seg_1_ReadPixel(pixelNumber);
1219:.\Generated_Source\PSoC5/LCD_Seg_1.c ****             pixelState = ~pixelState;
1220:.\Generated_Source\PSoC5/LCD_Seg_1.c ****         }
1221:.\Generated_Source\PSoC5/LCD_Seg_1.c **** 
1222:.\Generated_Source\PSoC5/LCD_Seg_1.c ****         /* Extract the pixel information to locate desired pixel in the frame
1223:.\Generated_Source\PSoC5/LCD_Seg_1.c ****         * buffer.
1224:.\Generated_Source\PSoC5/LCD_Seg_1.c ****         */
1225:.\Generated_Source\PSoC5/LCD_Seg_1.c ****         row = LCD_Seg_1_EXTRACT_ROW(pixelNumber);
1226:.\Generated_Source\PSoC5/LCD_Seg_1.c ****         port = LCD_Seg_1_EXTRACT_PORT(pixelNumber);
1227:.\Generated_Source\PSoC5/LCD_Seg_1.c ****         pin = LCD_Seg_1_EXTRACT_PIN(pixelNumber);
1228:.\Generated_Source\PSoC5/LCD_Seg_1.c **** 
1229:.\Generated_Source\PSoC5/LCD_Seg_1.c ****         /* Write new pixel's value to the frame buffer. */
ARM GAS  C:\Users\hari\AppData\Local\Temp\ccc0gtQ0.s 			page 23


1230:.\Generated_Source\PSoC5/LCD_Seg_1.c ****         mask = (uint8) ~((uint8)(((uint8)LCD_Seg_1_PIXEL_STATE_ON) << pin));
1231:.\Generated_Source\PSoC5/LCD_Seg_1.c **** 
1232:.\Generated_Source\PSoC5/LCD_Seg_1.c ****         /* Write new pixel's value to the frame buffer. */
1233:.\Generated_Source\PSoC5/LCD_Seg_1.c ****         LCD_Seg_1_buffer[(row * LCD_Seg_1_MAX_BUFF_ROWS) + port] =
1234:.\Generated_Source\PSoC5/LCD_Seg_1.c ****             (LCD_Seg_1_buffer[(row * LCD_Seg_1_MAX_BUFF_ROWS) + port] & mask) | 
1235:.\Generated_Source\PSoC5/LCD_Seg_1.c ****                 ((uint8)(((uint8) pixelState) << pin));
1236:.\Generated_Source\PSoC5/LCD_Seg_1.c **** 
1237:.\Generated_Source\PSoC5/LCD_Seg_1.c ****         status = CYRET_SUCCESS;
1238:.\Generated_Source\PSoC5/LCD_Seg_1.c ****     }
1239:.\Generated_Source\PSoC5/LCD_Seg_1.c ****     else
1240:.\Generated_Source\PSoC5/LCD_Seg_1.c ****     {
1241:.\Generated_Source\PSoC5/LCD_Seg_1.c ****         /* Let the User know he is entered wrong parameter. */
1242:.\Generated_Source\PSoC5/LCD_Seg_1.c ****         status = CYRET_BAD_PARAM;
1243:.\Generated_Source\PSoC5/LCD_Seg_1.c ****     }
1244:.\Generated_Source\PSoC5/LCD_Seg_1.c **** 
1245:.\Generated_Source\PSoC5/LCD_Seg_1.c ****     return(status);
1246:.\Generated_Source\PSoC5/LCD_Seg_1.c **** }
1247:.\Generated_Source\PSoC5/LCD_Seg_1.c **** 
1248:.\Generated_Source\PSoC5/LCD_Seg_1.c **** 
1249:.\Generated_Source\PSoC5/LCD_Seg_1.c **** /*******************************************************************************
1250:.\Generated_Source\PSoC5/LCD_Seg_1.c **** * Function Name: LCD_Seg_1_ReadPixel
1251:.\Generated_Source\PSoC5/LCD_Seg_1.c **** ********************************************************************************
1252:.\Generated_Source\PSoC5/LCD_Seg_1.c **** *
1253:.\Generated_Source\PSoC5/LCD_Seg_1.c **** * Summary:
1254:.\Generated_Source\PSoC5/LCD_Seg_1.c **** *  This function reads a pixels state in a frame buffer. The Pixel is addressed
1255:.\Generated_Source\PSoC5/LCD_Seg_1.c **** *  by a packed number. User code can also directly read the frame buffer RAM to
1256:.\Generated_Source\PSoC5/LCD_Seg_1.c **** *  create optimized interactions.
1257:.\Generated_Source\PSoC5/LCD_Seg_1.c **** *
1258:.\Generated_Source\PSoC5/LCD_Seg_1.c **** * Parameters:
1259:.\Generated_Source\PSoC5/LCD_Seg_1.c **** *  pixelNumber: is the packed number that points to the pixel's location in the
1260:.\Generated_Source\PSoC5/LCD_Seg_1.c **** *               frame buffer. The lowest three bits in the LSB low nibble are
1261:.\Generated_Source\PSoC5/LCD_Seg_1.c **** *               the bit position in the byte, the LSB upper nibble (4 bits) is
1262:.\Generated_Source\PSoC5/LCD_Seg_1.c **** *               the byte address in the multiplex row and the MSB low nibble
1263:.\Generated_Source\PSoC5/LCD_Seg_1.c **** *               (4 bits) is the multiplex row number.
1264:.\Generated_Source\PSoC5/LCD_Seg_1.c **** *
1265:.\Generated_Source\PSoC5/LCD_Seg_1.c **** * Return:
1266:.\Generated_Source\PSoC5/LCD_Seg_1.c **** *  Pixel State:
1267:.\Generated_Source\PSoC5/LCD_Seg_1.c **** *       LCD_Seg_1_PIXEL_STATE_OFF - for pixel off.
1268:.\Generated_Source\PSoC5/LCD_Seg_1.c **** *       LCD_Seg_1_PIXEL_STATE_ON - for pixel on.
1269:.\Generated_Source\PSoC5/LCD_Seg_1.c **** *       LCD_Seg_1_PIXEL_UNKNOWN_STATE - for not assigned pixel.
1270:.\Generated_Source\PSoC5/LCD_Seg_1.c **** *
1271:.\Generated_Source\PSoC5/LCD_Seg_1.c **** * Global variables:
1272:.\Generated_Source\PSoC5/LCD_Seg_1.c **** *  LCD_Seg_1_buffer[] - holds the state of every pixel of the LCD glass
1273:.\Generated_Source\PSoC5/LCD_Seg_1.c **** *  which can be read by this function.
1274:.\Generated_Source\PSoC5/LCD_Seg_1.c **** *
1275:.\Generated_Source\PSoC5/LCD_Seg_1.c **** *******************************************************************************/
1276:.\Generated_Source\PSoC5/LCD_Seg_1.c **** uint8 LCD_Seg_1_ReadPixel(uint16 pixelNumber) 
1277:.\Generated_Source\PSoC5/LCD_Seg_1.c **** {
1278:.\Generated_Source\PSoC5/LCD_Seg_1.c ****     uint8 pixelState;
1279:.\Generated_Source\PSoC5/LCD_Seg_1.c ****     uint8 row;
1280:.\Generated_Source\PSoC5/LCD_Seg_1.c ****     uint8 port;
1281:.\Generated_Source\PSoC5/LCD_Seg_1.c ****     uint8 pin;
1282:.\Generated_Source\PSoC5/LCD_Seg_1.c **** 
1283:.\Generated_Source\PSoC5/LCD_Seg_1.c ****     if(pixelNumber != LCD_Seg_1_NOT_CON)
1284:.\Generated_Source\PSoC5/LCD_Seg_1.c ****     {
1285:.\Generated_Source\PSoC5/LCD_Seg_1.c ****         /* Extract the pixel information to locate desired pixel in the frame
1286:.\Generated_Source\PSoC5/LCD_Seg_1.c ****         * buffer.
ARM GAS  C:\Users\hari\AppData\Local\Temp\ccc0gtQ0.s 			page 24


1287:.\Generated_Source\PSoC5/LCD_Seg_1.c ****         */
1288:.\Generated_Source\PSoC5/LCD_Seg_1.c ****         row = LCD_Seg_1_EXTRACT_ROW(pixelNumber);
1289:.\Generated_Source\PSoC5/LCD_Seg_1.c ****         port = LCD_Seg_1_EXTRACT_PORT(pixelNumber);
1290:.\Generated_Source\PSoC5/LCD_Seg_1.c ****         pin = LCD_Seg_1_EXTRACT_PIN(pixelNumber);
1291:.\Generated_Source\PSoC5/LCD_Seg_1.c **** 
1292:.\Generated_Source\PSoC5/LCD_Seg_1.c ****         pixelState = (((LCD_Seg_1_buffer[(row * LCD_Seg_1_MAX_BUFF_ROWS) + port]) >> pin) &
1293:.\Generated_Source\PSoC5/LCD_Seg_1.c ****                     LCD_Seg_1_PIXEL_STATE_ON);
1294:.\Generated_Source\PSoC5/LCD_Seg_1.c ****     }
1295:.\Generated_Source\PSoC5/LCD_Seg_1.c ****     else
1296:.\Generated_Source\PSoC5/LCD_Seg_1.c ****     {
1297:.\Generated_Source\PSoC5/LCD_Seg_1.c ****         pixelState = LCD_Seg_1_PIXEL_UNKNOWN_STATE;
1298:.\Generated_Source\PSoC5/LCD_Seg_1.c ****     }
1299:.\Generated_Source\PSoC5/LCD_Seg_1.c **** 
1300:.\Generated_Source\PSoC5/LCD_Seg_1.c ****     return(pixelState);
1301:.\Generated_Source\PSoC5/LCD_Seg_1.c **** }
1302:.\Generated_Source\PSoC5/LCD_Seg_1.c **** 
1303:.\Generated_Source\PSoC5/LCD_Seg_1.c **** 
1304:.\Generated_Source\PSoC5/LCD_Seg_1.c **** 
1305:.\Generated_Source\PSoC5/LCD_Seg_1.c **** /*******************************************************************************
1306:.\Generated_Source\PSoC5/LCD_Seg_1.c **** * Function Name: LCD_Seg_1_WriteControlReg
1307:.\Generated_Source\PSoC5/LCD_Seg_1.c **** ********************************************************************************
1308:.\Generated_Source\PSoC5/LCD_Seg_1.c **** *
1309:.\Generated_Source\PSoC5/LCD_Seg_1.c **** * Summary:
1310:.\Generated_Source\PSoC5/LCD_Seg_1.c **** *  This function dedicated for internal component usage only. It used to prepare
1311:.\Generated_Source\PSoC5/LCD_Seg_1.c **** *  the values for LCD Control Register wich will be later writen to it by DMA.
1312:.\Generated_Source\PSoC5/LCD_Seg_1.c **** *
1313:.\Generated_Source\PSoC5/LCD_Seg_1.c **** * Parameters:
1314:.\Generated_Source\PSoC5/LCD_Seg_1.c **** *  value: value to be written to Control Register.
1315:.\Generated_Source\PSoC5/LCD_Seg_1.c **** *  mask: mask for the respective value. Mask should contain '0' in bit positions
1316:.\Generated_Source\PSoC5/LCD_Seg_1.c **** *        that dessired to be set. For example for the value 0x03(00000011) mask
1317:.\Generated_Source\PSoC5/LCD_Seg_1.c **** *        will be 0xFC(11111100).
1318:.\Generated_Source\PSoC5/LCD_Seg_1.c **** *
1319:.\Generated_Source\PSoC5/LCD_Seg_1.c **** * Return:
1320:.\Generated_Source\PSoC5/LCD_Seg_1.c **** *  None.
1321:.\Generated_Source\PSoC5/LCD_Seg_1.c **** *
1322:.\Generated_Source\PSoC5/LCD_Seg_1.c **** * Global variables:
1323:.\Generated_Source\PSoC5/LCD_Seg_1.c **** *  LCD_Seg_1_frameTx[] - used to store a set of precalculated values
1324:.\Generated_Source\PSoC5/LCD_Seg_1.c **** *  for control register which is generated by this function.
1325:.\Generated_Source\PSoC5/LCD_Seg_1.c **** *
1326:.\Generated_Source\PSoC5/LCD_Seg_1.c **** * Theory:
1327:.\Generated_Source\PSoC5/LCD_Seg_1.c **** *  Non API function. Users should never use this function directly. To save UDB
1328:.\Generated_Source\PSoC5/LCD_Seg_1.c **** *  resources there is only one Control Register used for LCD operation. This
1329:.\Generated_Source\PSoC5/LCD_Seg_1.c **** *  Control Register contains Frame bit which is used to generate Frame signal.
1330:.\Generated_Source\PSoC5/LCD_Seg_1.c **** *  This is a dynamic signal which is transfered by the DMA. So all other
1331:.\Generated_Source\PSoC5/LCD_Seg_1.c **** *  control bist will be owervriten on every DMA transaction. That's why all the
1332:.\Generated_Source\PSoC5/LCD_Seg_1.c **** *  data that need to be remained in the Control Register are written to array
1333:.\Generated_Source\PSoC5/LCD_Seg_1.c **** *  where predefined values of Frame contain.
1334:.\Generated_Source\PSoC5/LCD_Seg_1.c **** *
1335:.\Generated_Source\PSoC5/LCD_Seg_1.c **** *******************************************************************************/
1336:.\Generated_Source\PSoC5/LCD_Seg_1.c **** static void LCD_Seg_1_WriteControlReg(uint8 value, uint8 mask) CYREENTRANT
1337:.\Generated_Source\PSoC5/LCD_Seg_1.c **** {
  26              		.loc 1 1337 0
  27              		.cfi_startproc
  28              		@ args = 0, pretend = 0, frame = 0
  29              		@ frame_needed = 0, uses_anonymous_args = 0
  30              		@ link register save eliminated.
  31              	.LVL0:
ARM GAS  C:\Users\hari\AppData\Local\Temp\ccc0gtQ0.s 			page 25


  32 0000 10B4     		push	{r4}
  33              		.cfi_def_cfa_offset 4
  34              		.cfi_offset 4, -4
  35              	.LVL1:
1338:.\Generated_Source\PSoC5/LCD_Seg_1.c ****     uint8 i;
1339:.\Generated_Source\PSoC5/LCD_Seg_1.c **** 
1340:.\Generated_Source\PSoC5/LCD_Seg_1.c ****     for(i = 0u; i < LCD_Seg_1_CONTROL_WRITE_COUNT; i++)
  36              		.loc 1 1340 0
  37 0002 0023     		movs	r3, #0
  38 0004 06E0     		b	.L2
  39              	.LVL2:
  40              	.L3:
1341:.\Generated_Source\PSoC5/LCD_Seg_1.c ****     {
1342:.\Generated_Source\PSoC5/LCD_Seg_1.c ****         /* Write the value for control register to each element of the array. */
1343:.\Generated_Source\PSoC5/LCD_Seg_1.c ****         LCD_Seg_1_frameTx[i] = (LCD_Seg_1_frameTx[i] & mask) | value;
  41              		.loc 1 1343 0 discriminator 3
  42 0006 064C     		ldr	r4, .L5
  43 0008 E25C     		ldrb	r2, [r4, r3]	@ zero_extendqisi2
  44 000a 0A40     		ands	r2, r2, r1
  45 000c 0243     		orrs	r2, r2, r0
  46 000e E254     		strb	r2, [r4, r3]
1340:.\Generated_Source\PSoC5/LCD_Seg_1.c ****     {
  47              		.loc 1 1340 0 discriminator 3
  48 0010 0133     		adds	r3, r3, #1
  49              	.LVL3:
  50 0012 DBB2     		uxtb	r3, r3
  51              	.LVL4:
  52              	.L2:
1340:.\Generated_Source\PSoC5/LCD_Seg_1.c ****     {
  53              		.loc 1 1340 0 is_stmt 0 discriminator 1
  54 0014 012B     		cmp	r3, #1
  55 0016 F6D9     		bls	.L3
1344:.\Generated_Source\PSoC5/LCD_Seg_1.c ****     }
1345:.\Generated_Source\PSoC5/LCD_Seg_1.c **** }
  56              		.loc 1 1345 0 is_stmt 1
  57 0018 5DF8044B 		ldr	r4, [sp], #4
  58              		.cfi_restore 4
  59              		.cfi_def_cfa_offset 0
  60 001c 7047     		bx	lr
  61              	.L6:
  62 001e 00BF     		.align	2
  63              	.L5:
  64 0020 00000000 		.word	.LANCHOR0
  65              		.cfi_endproc
  66              	.LFE14:
  67              		.size	LCD_Seg_1_WriteControlReg, .-LCD_Seg_1_WriteControlReg
  68              		.section	.text.LCD_Seg_1_DmaConfigure,"ax",%progbits
  69              		.align	2
  70              		.thumb
  71              		.thumb_func
  72              		.type	LCD_Seg_1_DmaConfigure, %function
  73              	LCD_Seg_1_DmaConfigure:
  74              	.LFB2:
 476:.\Generated_Source\PSoC5/LCD_Seg_1.c ****     uint8   status = CYRET_SUCCESS;
  75              		.loc 1 476 0
  76              		.cfi_startproc
  77              		@ args = 0, pretend = 0, frame = 0
ARM GAS  C:\Users\hari\AppData\Local\Temp\ccc0gtQ0.s 			page 26


  78              		@ frame_needed = 0, uses_anonymous_args = 0
  79 0000 F8B5     		push	{r3, r4, r5, r6, r7, lr}
  80              		.cfi_def_cfa_offset 24
  81              		.cfi_offset 3, -24
  82              		.cfi_offset 4, -20
  83              		.cfi_offset 5, -16
  84              		.cfi_offset 6, -12
  85              		.cfi_offset 7, -8
  86              		.cfi_offset 14, -4
  87              	.LVL5:
 491:.\Generated_Source\PSoC5/LCD_Seg_1.c ****         dstAddr = (uint32) LCD_Seg_1_CONTROL_PTR;
  88              		.loc 1 491 0
  89 0002 4C4D     		ldr	r5, .L27
  90              	.LVL6:
 495:.\Generated_Source\PSoC5/LCD_Seg_1.c ****                                                                             HI16(LCD_Seg_1_CONTROL_
  91              		.loc 1 495 0
  92 0004 0020     		movs	r0, #0
  93 0006 0146     		mov	r1, r0
  94 0008 2A0C     		lsrs	r2, r5, #16
  95 000a 4FF48043 		mov	r3, #16384
  96 000e FFF7FEFF 		bl	LCD_Seg_1_Frame_Dma_DmaInitialize
  97              	.LVL7:
  98 0012 494B     		ldr	r3, .L27+4
  99 0014 1870     		strb	r0, [r3]
 507:.\Generated_Source\PSoC5/LCD_Seg_1.c ****     {
 100              		.loc 1 507 0
 101 0016 FF28     		cmp	r0, #255
 102 0018 01D0     		beq	.L22
 477:.\Generated_Source\PSoC5/LCD_Seg_1.c ****     uint8   i;
 103              		.loc 1 477 0
 104 001a 0026     		movs	r6, #0
 105 001c 00E0     		b	.L8
 106              	.L22:
 509:.\Generated_Source\PSoC5/LCD_Seg_1.c ****     }
 107              		.loc 1 509 0
 108 001e 0426     		movs	r6, #4
 109              	.L8:
 525:.\Generated_Source\PSoC5/LCD_Seg_1.c ****             }
 110              		.loc 1 525 0 discriminator 1
 111 0020 0024     		movs	r4, #0
 112 0022 09E0     		b	.L9
 113              	.LVL8:
 114              	.L11:
 521:.\Generated_Source\PSoC5/LCD_Seg_1.c ****             
 115              		.loc 1 521 0
 116 0024 FFF7FEFF 		bl	CyDmaTdAllocate
 117              	.LVL9:
 118 0028 434B     		ldr	r3, .L27+4
 119 002a 2344     		add	r3, r3, r4
 120 002c 1871     		strb	r0, [r3, #4]
 523:.\Generated_Source\PSoC5/LCD_Seg_1.c ****             {
 121              		.loc 1 523 0
 122 002e FF28     		cmp	r0, #255
 123 0030 00D1     		bne	.L10
 525:.\Generated_Source\PSoC5/LCD_Seg_1.c ****             }
 124              		.loc 1 525 0
 125 0032 0426     		movs	r6, #4
ARM GAS  C:\Users\hari\AppData\Local\Temp\ccc0gtQ0.s 			page 27


 126              	.LVL10:
 127              	.L10:
 519:.\Generated_Source\PSoC5/LCD_Seg_1.c ****         {   /* Allocate a TD and check it if it valid. */
 128              		.loc 1 519 0 discriminator 2
 129 0034 0134     		adds	r4, r4, #1
 130              	.LVL11:
 131 0036 E4B2     		uxtb	r4, r4
 132              	.LVL12:
 133              	.L9:
 519:.\Generated_Source\PSoC5/LCD_Seg_1.c ****         {   /* Allocate a TD and check it if it valid. */
 134              		.loc 1 519 0 is_stmt 0 discriminator 1
 135 0038 012C     		cmp	r4, #1
 136 003a F3D9     		bls	.L11
 530:.\Generated_Source\PSoC5/LCD_Seg_1.c ****                                        1u,
 137              		.loc 1 530 0 is_stmt 1
 138 003c 3E4F     		ldr	r7, .L27+4
 139 003e 3879     		ldrb	r0, [r7, #4]	@ zero_extendqisi2
 140 0040 0121     		movs	r1, #1
 141 0042 7A79     		ldrb	r2, [r7, #5]	@ zero_extendqisi2
 142 0044 0B46     		mov	r3, r1
 143 0046 FFF7FEFF 		bl	CyDmaTdSetConfiguration
 144              	.LVL13:
 535:.\Generated_Source\PSoC5/LCD_Seg_1.c **** 
 145              		.loc 1 535 0
 146 004a ACB2     		uxth	r4, r5
 147              	.LVL14:
 148 004c 3879     		ldrb	r0, [r7, #4]	@ zero_extendqisi2
 149 004e 2146     		mov	r1, r4
 150 0050 46F27B42 		movw	r2, #25723
 151 0054 FFF7FEFF 		bl	CyDmaTdSetAddress
 152              	.LVL15:
 538:.\Generated_Source\PSoC5/LCD_Seg_1.c ****                                        1u,
 153              		.loc 1 538 0
 154 0058 7879     		ldrb	r0, [r7, #5]	@ zero_extendqisi2
 155 005a 0121     		movs	r1, #1
 156 005c 3A79     		ldrb	r2, [r7, #4]	@ zero_extendqisi2
 157 005e 0B46     		mov	r3, r1
 158 0060 FFF7FEFF 		bl	CyDmaTdSetConfiguration
 159              	.LVL16:
 543:.\Generated_Source\PSoC5/LCD_Seg_1.c **** 
 160              		.loc 1 543 0
 161 0064 611C     		adds	r1, r4, #1
 162 0066 7879     		ldrb	r0, [r7, #5]	@ zero_extendqisi2
 163 0068 89B2     		uxth	r1, r1
 164 006a 46F27B42 		movw	r2, #25723
 165 006e FFF7FEFF 		bl	CyDmaTdSetAddress
 166              	.LVL17:
 579:.\Generated_Source\PSoC5/LCD_Seg_1.c ****     {
 167              		.loc 1 579 0
 168 0072 3EB9     		cbnz	r6, .L12
 581:.\Generated_Source\PSoC5/LCD_Seg_1.c ****         (void) CyDmaChEnable(LCD_Seg_1_frameChannel, 1u);
 169              		.loc 1 581 0
 170 0074 3878     		ldrb	r0, [r7]	@ zero_extendqisi2
 171 0076 3979     		ldrb	r1, [r7, #4]	@ zero_extendqisi2
 172 0078 FFF7FEFF 		bl	CyDmaChSetInitialTd
 173              	.LVL18:
 582:.\Generated_Source\PSoC5/LCD_Seg_1.c ****     }
ARM GAS  C:\Users\hari\AppData\Local\Temp\ccc0gtQ0.s 			page 28


 174              		.loc 1 582 0
 175 007c 3878     		ldrb	r0, [r7]	@ zero_extendqisi2
 176 007e 0121     		movs	r1, #1
 177 0080 FFF7FEFF 		bl	CyDmaChEnable
 178              	.LVL19:
 179              	.L12:
 587:.\Generated_Source\PSoC5/LCD_Seg_1.c ****         dstAddr = (uint32) LCD_Seg_1_ALIASED_AREA_PTR;
 180              		.loc 1 587 0
 181 0084 2C4C     		ldr	r4, .L27+4
 182 0086 04F10805 		add	r5, r4, #8
 183              	.LVL20:
 590:.\Generated_Source\PSoC5/LCD_Seg_1.c ****                                                                         HI16(LCD_Seg_1_ALIASED_AREA
 184              		.loc 1 590 0
 185 008a 0020     		movs	r0, #0
 186 008c 0146     		mov	r1, r0
 187 008e 2A0C     		lsrs	r2, r5, #16
 188 0090 4FF48043 		mov	r3, #16384
 189 0094 FFF7FEFF 		bl	LCD_Seg_1_Lcd_Dma_DmaInitialize
 190              	.LVL21:
 191 0098 84F85800 		strb	r0, [r4, #88]
 599:.\Generated_Source\PSoC5/LCD_Seg_1.c ****     {
 192              		.loc 1 599 0
 193 009c FF28     		cmp	r0, #255
 194 009e 00D1     		bne	.L13
 601:.\Generated_Source\PSoC5/LCD_Seg_1.c ****     }
 195              		.loc 1 601 0
 196 00a0 0426     		movs	r6, #4
 197              	.LVL22:
 198              	.L13:
 612:.\Generated_Source\PSoC5/LCD_Seg_1.c ****             }
 199              		.loc 1 612 0 discriminator 1
 200 00a2 0024     		movs	r4, #0
 201 00a4 0AE0     		b	.L14
 202              	.LVL23:
 203              	.L16:
 608:.\Generated_Source\PSoC5/LCD_Seg_1.c ****             
 204              		.loc 1 608 0
 205 00a6 FFF7FEFF 		bl	CyDmaTdAllocate
 206              	.LVL24:
 207 00aa 234B     		ldr	r3, .L27+4
 208 00ac 2344     		add	r3, r3, r4
 209 00ae 83F85C00 		strb	r0, [r3, #92]
 610:.\Generated_Source\PSoC5/LCD_Seg_1.c ****             {
 210              		.loc 1 610 0
 211 00b2 FF28     		cmp	r0, #255
 212 00b4 00D1     		bne	.L15
 612:.\Generated_Source\PSoC5/LCD_Seg_1.c ****             }
 213              		.loc 1 612 0
 214 00b6 0426     		movs	r6, #4
 215              	.LVL25:
 216              	.L15:
 604:.\Generated_Source\PSoC5/LCD_Seg_1.c ****     {
 217              		.loc 1 604 0 discriminator 2
 218 00b8 0134     		adds	r4, r4, #1
 219              	.LVL26:
 220 00ba E4B2     		uxtb	r4, r4
 221              	.LVL27:
ARM GAS  C:\Users\hari\AppData\Local\Temp\ccc0gtQ0.s 			page 29


 222              	.L14:
 604:.\Generated_Source\PSoC5/LCD_Seg_1.c ****     {
 223              		.loc 1 604 0 is_stmt 0 discriminator 1
 224 00bc 042C     		cmp	r4, #4
 225 00be F2D9     		bls	.L16
 226 00c0 0024     		movs	r4, #0
 227              	.LVL28:
 228 00c2 25E0     		b	.L17
 229              	.LVL29:
 230              	.L20:
 642:.\Generated_Source\PSoC5/LCD_Seg_1.c ****             {
 231              		.loc 1 642 0 is_stmt 1
 232 00c4 042C     		cmp	r4, #4
 233 00c6 0AD1     		bne	.L18
 645:.\Generated_Source\PSoC5/LCD_Seg_1.c ****                                                (uint16)LCD_Seg_1_SegLcdPort_DMA_TD_PROTO_BLOCK[0].l
 234              		.loc 1 645 0
 235 00c8 1B4B     		ldr	r3, .L27+4
 236 00ca 1A19     		adds	r2, r3, r4
 237 00cc 92F85C00 		ldrb	r0, [r2, #92]	@ zero_extendqisi2
 238 00d0 0221     		movs	r1, #2
 239 00d2 93F85C20 		ldrb	r2, [r3, #92]	@ zero_extendqisi2
 240 00d6 0723     		movs	r3, #7
 241 00d8 FFF7FEFF 		bl	CyDmaTdSetConfiguration
 242              	.LVL30:
 243 00dc 09E0     		b	.L19
 244              	.L18:
 656:.\Generated_Source\PSoC5/LCD_Seg_1.c ****                                                (uint16) LCD_Seg_1_SegLcdPort_DMA_TD_PROTO_BLOCK[0].
 245              		.loc 1 656 0
 246 00de 164B     		ldr	r3, .L27+4
 247 00e0 1A19     		adds	r2, r3, r4
 248 00e2 92F85C00 		ldrb	r0, [r2, #92]	@ zero_extendqisi2
 249 00e6 0221     		movs	r1, #2
 250 00e8 92F85D20 		ldrb	r2, [r2, #93]	@ zero_extendqisi2
 251 00ec 0723     		movs	r3, #7
 252 00ee FFF7FEFF 		bl	CyDmaTdSetConfiguration
 253              	.LVL31:
 254              	.L19:
 663:.\Generated_Source\PSoC5/LCD_Seg_1.c ****                                      LO16(srcAddr) + (((uint16) j) * LCD_Seg_1_ROW_LENGTH) +
 255              		.loc 1 663 0 discriminator 2
 256 00f2 114B     		ldr	r3, .L27+4
 257 00f4 2344     		add	r3, r3, r4
 664:.\Generated_Source\PSoC5/LCD_Seg_1.c ****                                      ((uint16) LCD_Seg_1_SegLcdPort_DMA_TD_PROTO_BLOCK[0].offset),
 258              		.loc 1 664 0 discriminator 2
 259 00f6 A9B2     		uxth	r1, r5
 663:.\Generated_Source\PSoC5/LCD_Seg_1.c ****                                      LO16(srcAddr) + (((uint16) j) * LCD_Seg_1_ROW_LENGTH) +
 260              		.loc 1 663 0 discriminator 2
 261 00f8 01EB0411 		add	r1, r1, r4, lsl #4
 262 00fc 0231     		adds	r1, r1, #2
 263 00fe 93F85C00 		ldrb	r0, [r3, #92]	@ zero_extendqisi2
 264 0102 89B2     		uxth	r1, r1
 265 0104 45F28202 		movw	r2, #20610
 266 0108 FFF7FEFF 		bl	CyDmaTdSetAddress
 267              	.LVL32:
 634:.\Generated_Source\PSoC5/LCD_Seg_1.c ****     {
 268              		.loc 1 634 0 discriminator 2
 269 010c 0134     		adds	r4, r4, #1
 270              	.LVL33:
ARM GAS  C:\Users\hari\AppData\Local\Temp\ccc0gtQ0.s 			page 30


 271 010e E4B2     		uxtb	r4, r4
 272              	.LVL34:
 273              	.L17:
 634:.\Generated_Source\PSoC5/LCD_Seg_1.c ****     {
 274              		.loc 1 634 0 is_stmt 0 discriminator 1
 275 0110 042C     		cmp	r4, #4
 276 0112 D7D9     		bls	.L20
 713:.\Generated_Source\PSoC5/LCD_Seg_1.c ****     {
 277              		.loc 1 713 0 is_stmt 1
 278 0114 5EB9     		cbnz	r6, .L21
 715:.\Generated_Source\PSoC5/LCD_Seg_1.c ****         (void) CyDmaChEnable(LCD_Seg_1_lcdChannel, 1u);
 279              		.loc 1 715 0
 280 0116 084C     		ldr	r4, .L27+4
 281              	.LVL35:
 282 0118 94F85800 		ldrb	r0, [r4, #88]	@ zero_extendqisi2
 283 011c 94F85C10 		ldrb	r1, [r4, #92]	@ zero_extendqisi2
 284 0120 FFF7FEFF 		bl	CyDmaChSetInitialTd
 285              	.LVL36:
 716:.\Generated_Source\PSoC5/LCD_Seg_1.c ****     }
 286              		.loc 1 716 0
 287 0124 94F85800 		ldrb	r0, [r4, #88]	@ zero_extendqisi2
 288 0128 0121     		movs	r1, #1
 289 012a FFF7FEFF 		bl	CyDmaChEnable
 290              	.LVL37:
 291              	.L21:
 720:.\Generated_Source\PSoC5/LCD_Seg_1.c **** 
 292              		.loc 1 720 0
 293 012e 3046     		mov	r0, r6
 294 0130 F8BD     		pop	{r3, r4, r5, r6, r7, pc}
 295              	.LVL38:
 296              	.L28:
 297 0132 00BF     		.align	2
 298              	.L27:
 299 0134 00000000 		.word	.LANCHOR0
 300 0138 00000000 		.word	.LANCHOR1
 301              		.cfi_endproc
 302              	.LFE2:
 303              		.size	LCD_Seg_1_DmaConfigure, .-LCD_Seg_1_DmaConfigure
 304              		.section	.text.LCD_Seg_1_DmaDispose,"ax",%progbits
 305              		.align	2
 306              		.thumb
 307              		.thumb_func
 308              		.type	LCD_Seg_1_DmaDispose, %function
 309              	LCD_Seg_1_DmaDispose:
 310              	.LFB3:
 752:.\Generated_Source\PSoC5/LCD_Seg_1.c ****     uint8 i;
 311              		.loc 1 752 0
 312              		.cfi_startproc
 313              		@ args = 0, pretend = 0, frame = 0
 314              		@ frame_needed = 0, uses_anonymous_args = 0
 315 0000 10B5     		push	{r4, lr}
 316              		.cfi_def_cfa_offset 8
 317              		.cfi_offset 4, -8
 318              		.cfi_offset 14, -4
 756:.\Generated_Source\PSoC5/LCD_Seg_1.c **** 
 319              		.loc 1 756 0
 320 0002 FFF7FEFF 		bl	LCD_Seg_1_Lcd_Dma_DmaRelease
ARM GAS  C:\Users\hari\AppData\Local\Temp\ccc0gtQ0.s 			page 31


 321              	.LVL39:
 759:.\Generated_Source\PSoC5/LCD_Seg_1.c **** 
 322              		.loc 1 759 0
 323 0006 114C     		ldr	r4, .L35
 324 0008 94F85800 		ldrb	r0, [r4, #88]	@ zero_extendqisi2
 325 000c FFF7FEFF 		bl	CyDmaChFree
 326              	.LVL40:
 762:.\Generated_Source\PSoC5/LCD_Seg_1.c **** 
 327              		.loc 1 762 0
 328 0010 FFF7FEFF 		bl	LCD_Seg_1_Frame_Dma_DmaRelease
 329              	.LVL41:
 765:.\Generated_Source\PSoC5/LCD_Seg_1.c **** 
 330              		.loc 1 765 0
 331 0014 2078     		ldrb	r0, [r4]	@ zero_extendqisi2
 332 0016 FFF7FEFF 		bl	CyDmaChFree
 333              	.LVL42:
 768:.\Generated_Source\PSoC5/LCD_Seg_1.c ****         {
 334              		.loc 1 768 0
 335 001a 0024     		movs	r4, #0
 336 001c 06E0     		b	.L30
 337              	.LVL43:
 338              	.L31:
 770:.\Generated_Source\PSoC5/LCD_Seg_1.c ****         }
 339              		.loc 1 770 0 discriminator 3
 340 001e 0B4B     		ldr	r3, .L35
 341 0020 2344     		add	r3, r3, r4
 342 0022 1879     		ldrb	r0, [r3, #4]	@ zero_extendqisi2
 343 0024 FFF7FEFF 		bl	CyDmaTdFree
 344              	.LVL44:
 768:.\Generated_Source\PSoC5/LCD_Seg_1.c ****         {
 345              		.loc 1 768 0 discriminator 3
 346 0028 0134     		adds	r4, r4, #1
 347              	.LVL45:
 348 002a E4B2     		uxtb	r4, r4
 349              	.LVL46:
 350              	.L30:
 768:.\Generated_Source\PSoC5/LCD_Seg_1.c ****         {
 351              		.loc 1 768 0 is_stmt 0 discriminator 1
 352 002c 012C     		cmp	r4, #1
 353 002e F6D9     		bls	.L31
 354 0030 0024     		movs	r4, #0
 355              	.LVL47:
 356 0032 07E0     		b	.L32
 357              	.LVL48:
 358              	.L33:
 782:.\Generated_Source\PSoC5/LCD_Seg_1.c ****     }
 359              		.loc 1 782 0 is_stmt 1 discriminator 3
 360 0034 054B     		ldr	r3, .L35
 361 0036 2344     		add	r3, r3, r4
 362 0038 93F85C00 		ldrb	r0, [r3, #92]	@ zero_extendqisi2
 363 003c FFF7FEFF 		bl	CyDmaTdFree
 364              	.LVL49:
 780:.\Generated_Source\PSoC5/LCD_Seg_1.c ****     {
 365              		.loc 1 780 0 discriminator 3
 366 0040 0134     		adds	r4, r4, #1
 367              	.LVL50:
 368 0042 E4B2     		uxtb	r4, r4
ARM GAS  C:\Users\hari\AppData\Local\Temp\ccc0gtQ0.s 			page 32


 369              	.LVL51:
 370              	.L32:
 780:.\Generated_Source\PSoC5/LCD_Seg_1.c ****     {
 371              		.loc 1 780 0 is_stmt 0 discriminator 1
 372 0044 042C     		cmp	r4, #4
 373 0046 F5D9     		bls	.L33
 784:.\Generated_Source\PSoC5/LCD_Seg_1.c **** 
 374              		.loc 1 784 0 is_stmt 1
 375 0048 10BD     		pop	{r4, pc}
 376              	.LVL52:
 377              	.L36:
 378 004a 00BF     		.align	2
 379              	.L35:
 380 004c 00000000 		.word	.LANCHOR1
 381              		.cfi_endproc
 382              	.LFE3:
 383              		.size	LCD_Seg_1_DmaDispose, .-LCD_Seg_1_DmaDispose
 384              		.section	.text.LCD_Seg_1_Enable,"ax",%progbits
 385              		.align	2
 386              		.global	LCD_Seg_1_Enable
 387              		.thumb
 388              		.thumb_func
 389              		.type	LCD_Seg_1_Enable, %function
 390              	LCD_Seg_1_Enable:
 391              	.LFB1:
 393:.\Generated_Source\PSoC5/LCD_Seg_1.c ****     uint8 status;
 392              		.loc 1 393 0
 393              		.cfi_startproc
 394              		@ args = 0, pretend = 0, frame = 0
 395              		@ frame_needed = 0, uses_anonymous_args = 0
 396 0000 38B5     		push	{r3, r4, r5, lr}
 397              		.cfi_def_cfa_offset 16
 398              		.cfi_offset 3, -16
 399              		.cfi_offset 4, -12
 400              		.cfi_offset 5, -8
 401              		.cfi_offset 14, -4
 397:.\Generated_Source\PSoC5/LCD_Seg_1.c **** 
 402              		.loc 1 397 0
 403 0002 FFF7FEFF 		bl	CyEnterCriticalSection
 404              	.LVL53:
 400:.\Generated_Source\PSoC5/LCD_Seg_1.c ****     LCD_Seg_1_PWR_MGR_STBY_REG |= LCD_Seg_1_LCD_STBY_EN;
 405              		.loc 1 400 0
 406 0006 144A     		ldr	r2, .L39
 407 0008 1378     		ldrb	r3, [r2]	@ zero_extendqisi2
 408 000a 43F01003 		orr	r3, r3, #16
 409 000e 1370     		strb	r3, [r2]
 401:.\Generated_Source\PSoC5/LCD_Seg_1.c **** 
 410              		.loc 1 401 0
 411 0010 1032     		adds	r2, r2, #16
 412 0012 1378     		ldrb	r3, [r2]	@ zero_extendqisi2
 413 0014 43F01003 		orr	r3, r3, #16
 414 0018 1370     		strb	r3, [r2]
 403:.\Generated_Source\PSoC5/LCD_Seg_1.c **** 
 415              		.loc 1 403 0
 416 001a FFF7FEFF 		bl	CyExitCriticalSection
 417              	.LVL54:
 406:.\Generated_Source\PSoC5/LCD_Seg_1.c **** 
ARM GAS  C:\Users\hari\AppData\Local\Temp\ccc0gtQ0.s 			page 33


 418              		.loc 1 406 0
 419 001e FFF7FEFF 		bl	LCD_Seg_1_Int_Clock_Start
 420              	.LVL55:
 408:.\Generated_Source\PSoC5/LCD_Seg_1.c **** 
 421              		.loc 1 408 0
 422 0022 FFF7FEFF 		bl	LCD_Seg_1_DmaConfigure
 423              	.LVL56:
 424 0026 0546     		mov	r5, r0
 425              	.LVL57:
 411:.\Generated_Source\PSoC5/LCD_Seg_1.c ****     LCD_Seg_1_PWM_DRIVE_REG = LCD_Seg_1_PWM_DRIVE_VAL;
 426              		.loc 1 411 0
 427 0028 FF22     		movs	r2, #255
 428 002a 0C4B     		ldr	r3, .L39+4
 429 002c 1A70     		strb	r2, [r3]
 412:.\Generated_Source\PSoC5/LCD_Seg_1.c ****     LCD_Seg_1_PWM_LODRIVE_REG = LCD_Seg_1_PWM_LOWDRIVE_VAL;
 430              		.loc 1 412 0
 431 002e FE24     		movs	r4, #254
 432 0030 1033     		adds	r3, r3, #16
 433 0032 1C70     		strb	r4, [r3]
 413:.\Generated_Source\PSoC5/LCD_Seg_1.c **** 
 434              		.loc 1 413 0
 435 0034 0222     		movs	r2, #2
 436 0036 1033     		adds	r3, r3, #16
 437 0038 1A70     		strb	r2, [r3]
 415:.\Generated_Source\PSoC5/LCD_Seg_1.c ****     (uint8)LCD_Seg_1_CNTL_FRAME_DONE_MASK);
 438              		.loc 1 415 0
 439 003a 0820     		movs	r0, #8
 440 003c F721     		movs	r1, #247
 441 003e FFF7FEFF 		bl	LCD_Seg_1_WriteControlReg
 442              	.LVL58:
 419:.\Generated_Source\PSoC5/LCD_Seg_1.c **** 
 443              		.loc 1 419 0
 444 0042 0120     		movs	r0, #1
 445 0044 2146     		mov	r1, r4
 446 0046 FFF7FEFF 		bl	LCD_Seg_1_WriteControlReg
 447              	.LVL59:
 424:.\Generated_Source\PSoC5/LCD_Seg_1.c **** 
 448              		.loc 1 424 0
 449 004a 054A     		ldr	r2, .L39+8
 450 004c 1378     		ldrb	r3, [r2]	@ zero_extendqisi2
 451 004e 43F00103 		orr	r3, r3, #1
 452 0052 1370     		strb	r3, [r2]
 437:.\Generated_Source\PSoC5/LCD_Seg_1.c **** 
 453              		.loc 1 437 0
 454 0054 2846     		mov	r0, r5
 455 0056 38BD     		pop	{r3, r4, r5, pc}
 456              	.LVL60:
 457              	.L40:
 458              		.align	2
 459              	.L39:
 460 0058 A5430040 		.word	1073759141
 461 005c 1B640040 		.word	1073767451
 462 0060 7B640040 		.word	1073767547
 463              		.cfi_endproc
 464              	.LFE1:
 465              		.size	LCD_Seg_1_Enable, .-LCD_Seg_1_Enable
 466              		.section	.text.LCD_Seg_1_Stop,"ax",%progbits
ARM GAS  C:\Users\hari\AppData\Local\Temp\ccc0gtQ0.s 			page 34


 467              		.align	2
 468              		.global	LCD_Seg_1_Stop
 469              		.thumb
 470              		.thumb_func
 471              		.type	LCD_Seg_1_Stop, %function
 472              	LCD_Seg_1_Stop:
 473              	.LFB5:
 849:.\Generated_Source\PSoC5/LCD_Seg_1.c ****     uint8   interruptState;
 474              		.loc 1 849 0
 475              		.cfi_startproc
 476              		@ args = 0, pretend = 0, frame = 0
 477              		@ frame_needed = 0, uses_anonymous_args = 0
 478 0000 08B5     		push	{r3, lr}
 479              		.cfi_def_cfa_offset 8
 480              		.cfi_offset 3, -8
 481              		.cfi_offset 14, -4
 853:.\Generated_Source\PSoC5/LCD_Seg_1.c **** 
 482              		.loc 1 853 0
 483 0002 0020     		movs	r0, #0
 484 0004 FE21     		movs	r1, #254
 485 0006 FFF7FEFF 		bl	LCD_Seg_1_WriteControlReg
 486              	.LVL61:
 866:.\Generated_Source\PSoC5/LCD_Seg_1.c ****     /* Clear Continous Display Blink bit */
 487              		.loc 1 866 0
 488 000a 104B     		ldr	r3, .L43
 489 000c 1A78     		ldrb	r2, [r3]	@ zero_extendqisi2
 490 000e 02F0F702 		and	r2, r2, #247
 491 0012 1A70     		strb	r2, [r3]
 868:.\Generated_Source\PSoC5/LCD_Seg_1.c ****     /* Clear Continous Bypass Enable bit */
 492              		.loc 1 868 0
 493 0014 1A78     		ldrb	r2, [r3]	@ zero_extendqisi2
 494 0016 02F0FE02 		and	r2, r2, #254
 495 001a 1A70     		strb	r2, [r3]
 870:.\Generated_Source\PSoC5/LCD_Seg_1.c **** 
 496              		.loc 1 870 0
 497 001c 1A78     		ldrb	r2, [r3]	@ zero_extendqisi2
 498 001e 02F0EF02 		and	r2, r2, #239
 499 0022 1A70     		strb	r2, [r3]
 872:.\Generated_Source\PSoC5/LCD_Seg_1.c **** 
 500              		.loc 1 872 0
 501 0024 FFF7FEFF 		bl	CyEnterCriticalSection
 502              	.LVL62:
 875:.\Generated_Source\PSoC5/LCD_Seg_1.c ****     LCD_Seg_1_PWR_MGR_STBY_REG &= ((uint8) ~LCD_Seg_1_LCD_STBY_EN);
 503              		.loc 1 875 0
 504 0028 094A     		ldr	r2, .L43+4
 505 002a 1378     		ldrb	r3, [r2]	@ zero_extendqisi2
 506 002c 03F0EF03 		and	r3, r3, #239
 507 0030 1370     		strb	r3, [r2]
 876:.\Generated_Source\PSoC5/LCD_Seg_1.c **** 
 508              		.loc 1 876 0
 509 0032 1032     		adds	r2, r2, #16
 510 0034 1378     		ldrb	r3, [r2]	@ zero_extendqisi2
 511 0036 03F0EF03 		and	r3, r3, #239
 512 003a 1370     		strb	r3, [r2]
 878:.\Generated_Source\PSoC5/LCD_Seg_1.c **** 
 513              		.loc 1 878 0
 514 003c FFF7FEFF 		bl	CyExitCriticalSection
ARM GAS  C:\Users\hari\AppData\Local\Temp\ccc0gtQ0.s 			page 35


 515              	.LVL63:
 881:.\Generated_Source\PSoC5/LCD_Seg_1.c **** 
 516              		.loc 1 881 0
 517 0040 FFF7FEFF 		bl	LCD_Seg_1_DmaDispose
 518              	.LVL64:
 884:.\Generated_Source\PSoC5/LCD_Seg_1.c **** }
 519              		.loc 1 884 0
 520 0044 FFF7FEFF 		bl	LCD_Seg_1_Int_Clock_Stop
 521              	.LVL65:
 522 0048 08BD     		pop	{r3, pc}
 523              	.L44:
 524 004a 00BF     		.align	2
 525              	.L43:
 526 004c 68580040 		.word	1073764456
 527 0050 A5430040 		.word	1073759141
 528              		.cfi_endproc
 529              	.LFE5:
 530              		.size	LCD_Seg_1_Stop, .-LCD_Seg_1_Stop
 531              		.section	.text.LCD_Seg_1_EnableInt,"ax",%progbits
 532              		.align	2
 533              		.global	LCD_Seg_1_EnableInt
 534              		.thumb
 535              		.thumb_func
 536              		.type	LCD_Seg_1_EnableInt, %function
 537              	LCD_Seg_1_EnableInt:
 538              	.LFB6:
 910:.\Generated_Source\PSoC5/LCD_Seg_1.c ****     /* Enable every sub-frame interrupt */
 539              		.loc 1 910 0
 540              		.cfi_startproc
 541              		@ args = 0, pretend = 0, frame = 0
 542              		@ frame_needed = 0, uses_anonymous_args = 0
 543              		@ link register save eliminated.
 912:.\Generated_Source\PSoC5/LCD_Seg_1.c ****     
 544              		.loc 1 912 0
 545 0000 024B     		ldr	r3, .L46
 546 0002 0122     		movs	r2, #1
 547 0004 1A60     		str	r2, [r3]
 917:.\Generated_Source\PSoC5/LCD_Seg_1.c ****     
 548              		.loc 1 917 0
 549 0006 0222     		movs	r2, #2
 550 0008 1A60     		str	r2, [r3]
 551 000a 7047     		bx	lr
 552              	.L47:
 553              		.align	2
 554              	.L46:
 555 000c 00E100E0 		.word	-536813312
 556              		.cfi_endproc
 557              	.LFE6:
 558              		.size	LCD_Seg_1_EnableInt, .-LCD_Seg_1_EnableInt
 559              		.section	.text.LCD_Seg_1_DisableInt,"ax",%progbits
 560              		.align	2
 561              		.global	LCD_Seg_1_DisableInt
 562              		.thumb
 563              		.thumb_func
 564              		.type	LCD_Seg_1_DisableInt, %function
 565              	LCD_Seg_1_DisableInt:
 566              	.LFB7:
ARM GAS  C:\Users\hari\AppData\Local\Temp\ccc0gtQ0.s 			page 36


 938:.\Generated_Source\PSoC5/LCD_Seg_1.c ****     /* Disable every sub-frame interrupt */
 567              		.loc 1 938 0
 568              		.cfi_startproc
 569              		@ args = 0, pretend = 0, frame = 0
 570              		@ frame_needed = 0, uses_anonymous_args = 0
 571              		@ link register save eliminated.
 940:.\Generated_Source\PSoC5/LCD_Seg_1.c ****     
 572              		.loc 1 940 0
 573 0000 024B     		ldr	r3, .L49
 574 0002 0122     		movs	r2, #1
 575 0004 1A60     		str	r2, [r3]
 945:.\Generated_Source\PSoC5/LCD_Seg_1.c ****     
 576              		.loc 1 945 0
 577 0006 0222     		movs	r2, #2
 578 0008 1A60     		str	r2, [r3]
 579 000a 7047     		bx	lr
 580              	.L50:
 581              		.align	2
 582              	.L49:
 583 000c 80E100E0 		.word	-536813184
 584              		.cfi_endproc
 585              	.LFE7:
 586              		.size	LCD_Seg_1_DisableInt, .-LCD_Seg_1_DisableInt
 587              		.section	.text.LCD_Seg_1_SetBias,"ax",%progbits
 588              		.align	2
 589              		.global	LCD_Seg_1_SetBias
 590              		.thumb
 591              		.thumb_func
 592              		.type	LCD_Seg_1_SetBias, %function
 593              	LCD_Seg_1_SetBias:
 594              	.LFB8:
 971:.\Generated_Source\PSoC5/LCD_Seg_1.c ****     uint8 status;
 595              		.loc 1 971 0
 596              		.cfi_startproc
 597              		@ args = 0, pretend = 0, frame = 0
 598              		@ frame_needed = 0, uses_anonymous_args = 0
 599              		@ link register save eliminated.
 600              	.LVL66:
 974:.\Generated_Source\PSoC5/LCD_Seg_1.c ****     {
 601              		.loc 1 974 0
 602 0000 3F28     		cmp	r0, #63
 603 0002 03D8     		bhi	.L53
 976:.\Generated_Source\PSoC5/LCD_Seg_1.c ****         status = CYRET_SUCCESS;
 604              		.loc 1 976 0
 605 0004 024B     		ldr	r3, .L54
 606 0006 1870     		strb	r0, [r3]
 607              	.LVL67:
 977:.\Generated_Source\PSoC5/LCD_Seg_1.c ****     }
 608              		.loc 1 977 0
 609 0008 0020     		movs	r0, #0
 610              	.LVL68:
 611 000a 7047     		bx	lr
 612              	.LVL69:
 613              	.L53:
 981:.\Generated_Source\PSoC5/LCD_Seg_1.c ****     }
 614              		.loc 1 981 0
 615 000c 0120     		movs	r0, #1
ARM GAS  C:\Users\hari\AppData\Local\Temp\ccc0gtQ0.s 			page 37


 616              	.LVL70:
 985:.\Generated_Source\PSoC5/LCD_Seg_1.c **** 
 617              		.loc 1 985 0
 618 000e 7047     		bx	lr
 619              	.L55:
 620              		.align	2
 621              	.L54:
 622 0010 69580040 		.word	1073764457
 623              		.cfi_endproc
 624              	.LFE8:
 625              		.size	LCD_Seg_1_SetBias, .-LCD_Seg_1_SetBias
 626              		.section	.text.LCD_Seg_1_ReadInvertState,"ax",%progbits
 627              		.align	2
 628              		.global	LCD_Seg_1_ReadInvertState
 629              		.thumb
 630              		.thumb_func
 631              		.type	LCD_Seg_1_ReadInvertState, %function
 632              	LCD_Seg_1_ReadInvertState:
 633              	.LFB10:
1109:.\Generated_Source\PSoC5/LCD_Seg_1.c ****     /* Get only invert bit of Driver Control Register */
 634              		.loc 1 1109 0
 635              		.cfi_startproc
 636              		@ args = 0, pretend = 0, frame = 0
 637              		@ frame_needed = 0, uses_anonymous_args = 0
 638              		@ link register save eliminated.
1111:.\Generated_Source\PSoC5/LCD_Seg_1.c **** }
 639              		.loc 1 1111 0
 640 0000 024B     		ldr	r3, .L57
 641 0002 1878     		ldrb	r0, [r3]	@ zero_extendqisi2
1112:.\Generated_Source\PSoC5/LCD_Seg_1.c **** 
 642              		.loc 1 1112 0
 643 0004 C0F38000 		ubfx	r0, r0, #2, #1
 644 0008 7047     		bx	lr
 645              	.L58:
 646 000a 00BF     		.align	2
 647              	.L57:
 648 000c 6A580040 		.word	1073764458
 649              		.cfi_endproc
 650              	.LFE10:
 651              		.size	LCD_Seg_1_ReadInvertState, .-LCD_Seg_1_ReadInvertState
 652              		.section	.text.LCD_Seg_1_ReadPixel,"ax",%progbits
 653              		.align	2
 654              		.global	LCD_Seg_1_ReadPixel
 655              		.thumb
 656              		.thumb_func
 657              		.type	LCD_Seg_1_ReadPixel, %function
 658              	LCD_Seg_1_ReadPixel:
 659              	.LFB13:
1277:.\Generated_Source\PSoC5/LCD_Seg_1.c ****     uint8 pixelState;
 660              		.loc 1 1277 0
 661              		.cfi_startproc
 662              		@ args = 0, pretend = 0, frame = 0
 663              		@ frame_needed = 0, uses_anonymous_args = 0
 664              		@ link register save eliminated.
 665              	.LVL71:
1283:.\Generated_Source\PSoC5/LCD_Seg_1.c ****     {
 666              		.loc 1 1283 0
ARM GAS  C:\Users\hari\AppData\Local\Temp\ccc0gtQ0.s 			page 38


 667 0000 4FF6FF73 		movw	r3, #65535
 668 0004 9842     		cmp	r0, r3
 669 0006 0AD0     		beq	.L61
 670              	.LVL72:
1290:.\Generated_Source\PSoC5/LCD_Seg_1.c **** 
 671              		.loc 1 1290 0
 672 0008 00F00703 		and	r3, r0, #7
 673              	.LVL73:
1292:.\Generated_Source\PSoC5/LCD_Seg_1.c ****                     LCD_Seg_1_PIXEL_STATE_ON);
 674              		.loc 1 1292 0
 675 000c C0F30710 		ubfx	r0, r0, #4, #8
 676              	.LVL74:
 677 0010 044A     		ldr	r2, .L62
 678 0012 1044     		add	r0, r0, r2
 679 0014 007A     		ldrb	r0, [r0, #8]	@ zero_extendqisi2
 680 0016 1841     		asrs	r0, r0, r3
 681 0018 00F00100 		and	r0, r0, #1
 682              	.LVL75:
 683 001c 7047     		bx	lr
 684              	.LVL76:
 685              	.L61:
1297:.\Generated_Source\PSoC5/LCD_Seg_1.c ****     }
 686              		.loc 1 1297 0
 687 001e FF20     		movs	r0, #255
 688              	.LVL77:
1301:.\Generated_Source\PSoC5/LCD_Seg_1.c **** 
 689              		.loc 1 1301 0
 690 0020 7047     		bx	lr
 691              	.L63:
 692 0022 00BF     		.align	2
 693              	.L62:
 694 0024 00000000 		.word	.LANCHOR1
 695              		.cfi_endproc
 696              	.LFE13:
 697              		.size	LCD_Seg_1_ReadPixel, .-LCD_Seg_1_ReadPixel
 698              		.section	.text.LCD_Seg_1_WritePixel,"ax",%progbits
 699              		.align	2
 700              		.global	LCD_Seg_1_WritePixel
 701              		.thumb
 702              		.thumb_func
 703              		.type	LCD_Seg_1_WritePixel, %function
 704              	LCD_Seg_1_WritePixel:
 705              	.LFB12:
1206:.\Generated_Source\PSoC5/LCD_Seg_1.c ****     uint8 mask;
 706              		.loc 1 1206 0
 707              		.cfi_startproc
 708              		@ args = 0, pretend = 0, frame = 0
 709              		@ frame_needed = 0, uses_anonymous_args = 0
 710              	.LVL78:
 711 0000 10B5     		push	{r4, lr}
 712              		.cfi_def_cfa_offset 8
 713              		.cfi_offset 4, -8
 714              		.cfi_offset 14, -4
 715 0002 0446     		mov	r4, r0
1213:.\Generated_Source\PSoC5/LCD_Seg_1.c ****     {
 716              		.loc 1 1213 0
 717 0004 4FF6FF73 		movw	r3, #65535
ARM GAS  C:\Users\hari\AppData\Local\Temp\ccc0gtQ0.s 			page 39


 718 0008 9842     		cmp	r0, r3
 719 000a 01D1     		bne	.L65
1213:.\Generated_Source\PSoC5/LCD_Seg_1.c ****     {
 720              		.loc 1 1213 0 is_stmt 0 discriminator 1
 721 000c 0229     		cmp	r1, #2
 722 000e 16D8     		bhi	.L68
 723              	.L65:
1215:.\Generated_Source\PSoC5/LCD_Seg_1.c ****         {
 724              		.loc 1 1215 0 is_stmt 1
 725 0010 0229     		cmp	r1, #2
 726 0012 04D1     		bne	.L67
1218:.\Generated_Source\PSoC5/LCD_Seg_1.c ****             pixelState = ~pixelState;
 727              		.loc 1 1218 0
 728 0014 2046     		mov	r0, r4
 729              	.LVL79:
 730 0016 FFF7FEFF 		bl	LCD_Seg_1_ReadPixel
 731              	.LVL80:
1219:.\Generated_Source\PSoC5/LCD_Seg_1.c ****         }
 732              		.loc 1 1219 0
 733 001a C043     		mvns	r0, r0
 734              	.LVL81:
 735 001c C1B2     		uxtb	r1, r0
 736              	.LVL82:
 737              	.L67:
1227:.\Generated_Source\PSoC5/LCD_Seg_1.c **** 
 738              		.loc 1 1227 0
 739 001e 04F00702 		and	r2, r4, #7
 740              	.LVL83:
1230:.\Generated_Source\PSoC5/LCD_Seg_1.c **** 
 741              		.loc 1 1230 0
 742 0022 0120     		movs	r0, #1
 743 0024 9040     		lsls	r0, r0, r2
 744              	.LVL84:
1234:.\Generated_Source\PSoC5/LCD_Seg_1.c ****                 ((uint8)(((uint8) pixelState) << pin));
 745              		.loc 1 1234 0
 746 0026 C4F30714 		ubfx	r4, r4, #4, #8
 747              	.LVL85:
 748 002a 064B     		ldr	r3, .L70
 749 002c 1C44     		add	r4, r4, r3
 750 002e 237A     		ldrb	r3, [r4, #8]	@ zero_extendqisi2
1235:.\Generated_Source\PSoC5/LCD_Seg_1.c **** 
 751              		.loc 1 1235 0
 752 0030 9140     		lsls	r1, r1, r2
 753              	.LVL86:
1233:.\Generated_Source\PSoC5/LCD_Seg_1.c ****             (LCD_Seg_1_buffer[(row * LCD_Seg_1_MAX_BUFF_ROWS) + port] & mask) | 
 754              		.loc 1 1233 0
 755 0032 23EA0000 		bic	r0, r3, r0
 756              	.LVL87:
 757 0036 0143     		orrs	r1, r1, r0
 758 0038 2172     		strb	r1, [r4, #8]
 759              	.LVL88:
1237:.\Generated_Source\PSoC5/LCD_Seg_1.c ****     }
 760              		.loc 1 1237 0
 761 003a 0020     		movs	r0, #0
 762 003c 10BD     		pop	{r4, pc}
 763              	.LVL89:
 764              	.L68:
ARM GAS  C:\Users\hari\AppData\Local\Temp\ccc0gtQ0.s 			page 40


1242:.\Generated_Source\PSoC5/LCD_Seg_1.c ****     }
 765              		.loc 1 1242 0
 766 003e 0120     		movs	r0, #1
 767              	.LVL90:
1246:.\Generated_Source\PSoC5/LCD_Seg_1.c **** 
 768              		.loc 1 1246 0
 769 0040 10BD     		pop	{r4, pc}
 770              	.L71:
 771 0042 00BF     		.align	2
 772              	.L70:
 773 0044 00000000 		.word	.LANCHOR1
 774              		.cfi_endproc
 775              	.LFE12:
 776              		.size	LCD_Seg_1_WritePixel, .-LCD_Seg_1_WritePixel
 777              		.section	.text.LCD_Seg_1_WriteInvertState,"ax",%progbits
 778              		.align	2
 779              		.global	LCD_Seg_1_WriteInvertState
 780              		.thumb
 781              		.thumb_func
 782              		.type	LCD_Seg_1_WriteInvertState, %function
 783              	LCD_Seg_1_WriteInvertState:
 784              	.LFB9:
1014:.\Generated_Source\PSoC5/LCD_Seg_1.c ****     uint8 status;
 785              		.loc 1 1014 0
 786              		.cfi_startproc
 787              		@ args = 0, pretend = 0, frame = 0
 788              		@ frame_needed = 0, uses_anonymous_args = 0
 789              	.LVL91:
1024:.\Generated_Source\PSoC5/LCD_Seg_1.c ****     {
 790              		.loc 1 1024 0
 791 0000 0128     		cmp	r0, #1
 792 0002 3AD8     		bhi	.L81
1014:.\Generated_Source\PSoC5/LCD_Seg_1.c ****     uint8 status;
 793              		.loc 1 1014 0
 794 0004 2DE9F041 		push	{r4, r5, r6, r7, r8, lr}
 795              		.cfi_def_cfa_offset 24
 796              		.cfi_offset 4, -24
 797              		.cfi_offset 5, -20
 798              		.cfi_offset 6, -16
 799              		.cfi_offset 7, -12
 800              		.cfi_offset 8, -8
 801              		.cfi_offset 14, -4
1026:.\Generated_Source\PSoC5/LCD_Seg_1.c ****         {
 802              		.loc 1 1026 0
 803 0008 08B9     		cbnz	r0, .L82
1028:.\Generated_Source\PSoC5/LCD_Seg_1.c ****         }
 804              		.loc 1 1028 0
 805 000a 0026     		movs	r6, #0
 806 000c 00E0     		b	.L74
 807              	.L82:
1032:.\Generated_Source\PSoC5/LCD_Seg_1.c ****         }
 808              		.loc 1 1032 0
 809 000e 0126     		movs	r6, #1
 810              	.L74:
 811 0010 0746     		mov	r7, r0
 812              	.LVL92:
1058:.\Generated_Source\PSoC5/LCD_Seg_1.c ****         {
ARM GAS  C:\Users\hari\AppData\Local\Temp\ccc0gtQ0.s 			page 41


 813              		.loc 1 1058 0
 814 0012 4FF00008 		mov	r8, #0
 815 0016 15E0     		b	.L75
 816              	.LVL93:
 817              	.L78:
1060:.\Generated_Source\PSoC5/LCD_Seg_1.c **** 
 818              		.loc 1 1060 0
 819 0018 194B     		ldr	r3, .L85
 820 001a 33F81840 		ldrh	r4, [r3, r8, lsl #1]
 821              	.LVL94:
1062:.\Generated_Source\PSoC5/LCD_Seg_1.c ****             {
 822              		.loc 1 1062 0
 823 001e 0025     		movs	r5, #0
 824 0020 0AE0     		b	.L76
 825              	.LVL95:
 826              	.L77:
1064:.\Generated_Source\PSoC5/LCD_Seg_1.c ****                                (((uint16) j) << LCD_Seg_1_ROW_SHIFT);
 827              		.loc 1 1064 0 discriminator 3
 828 0022 24F47064 		bic	r4, r4, #3840
 829              	.LVL96:
 830 0026 44EA0524 		orr	r4, r4, r5, lsl #8
 831 002a A4B2     		uxth	r4, r4
 832              	.LVL97:
1067:.\Generated_Source\PSoC5/LCD_Seg_1.c ****             }
 833              		.loc 1 1067 0 discriminator 3
 834 002c 2046     		mov	r0, r4
 835 002e 3146     		mov	r1, r6
 836 0030 FFF7FEFF 		bl	LCD_Seg_1_WritePixel
 837              	.LVL98:
1062:.\Generated_Source\PSoC5/LCD_Seg_1.c ****             {
 838              		.loc 1 1062 0 discriminator 3
 839 0034 0135     		adds	r5, r5, #1
 840              	.LVL99:
 841 0036 ADB2     		uxth	r5, r5
 842              	.LVL100:
 843              	.L76:
1062:.\Generated_Source\PSoC5/LCD_Seg_1.c ****             {
 844              		.loc 1 1062 0 is_stmt 0 discriminator 1
 845 0038 042D     		cmp	r5, #4
 846 003a F2D9     		bls	.L77
1058:.\Generated_Source\PSoC5/LCD_Seg_1.c ****         {
 847              		.loc 1 1058 0 is_stmt 1 discriminator 2
 848 003c 08F10108 		add	r8, r8, #1
 849              	.LVL101:
 850 0040 5FFA88F8 		uxtb	r8, r8
 851              	.LVL102:
 852              	.L75:
1058:.\Generated_Source\PSoC5/LCD_Seg_1.c ****         {
 853              		.loc 1 1058 0 is_stmt 0 discriminator 1
 854 0044 B8F1040F 		cmp	r8, #4
 855 0048 E6D9     		bls	.L78
 856 004a 0024     		movs	r4, #0
 857 004c 08E0     		b	.L79
 858              	.LVL103:
 859              	.L80:
1074:.\Generated_Source\PSoC5/LCD_Seg_1.c ****                                         (((uint8)~pixelState) & ((uint8)LCD_Seg_1_STATE_MASK)));
 860              		.loc 1 1074 0 is_stmt 1 discriminator 3
ARM GAS  C:\Users\hari\AppData\Local\Temp\ccc0gtQ0.s 			page 42


 861 004e 0C4B     		ldr	r3, .L85
 862 0050 33F81400 		ldrh	r0, [r3, r4, lsl #1]
 863 0054 86F00101 		eor	r1, r6, #1
 864 0058 FFF7FEFF 		bl	LCD_Seg_1_WritePixel
 865              	.LVL104:
1072:.\Generated_Source\PSoC5/LCD_Seg_1.c ****         {
 866              		.loc 1 1072 0 discriminator 3
 867 005c 0134     		adds	r4, r4, #1
 868              	.LVL105:
 869 005e E4B2     		uxtb	r4, r4
 870              	.LVL106:
 871              	.L79:
1072:.\Generated_Source\PSoC5/LCD_Seg_1.c ****         {
 872              		.loc 1 1072 0 is_stmt 0 discriminator 1
 873 0060 042C     		cmp	r4, #4
 874 0062 F4D9     		bls	.L80
1078:.\Generated_Source\PSoC5/LCD_Seg_1.c ****                                               ((uint8)LCD_Seg_1_STATE_MASK)) | 
 875              		.loc 1 1078 0 is_stmt 1
 876 0064 074A     		ldr	r2, .L85+4
 877 0066 1378     		ldrb	r3, [r2]	@ zero_extendqisi2
1080:.\Generated_Source\PSoC5/LCD_Seg_1.c **** 
 878              		.loc 1 1080 0
 879 0068 BF00     		lsls	r7, r7, #2
 880 006a FFB2     		uxtb	r7, r7
1078:.\Generated_Source\PSoC5/LCD_Seg_1.c ****                                               ((uint8)LCD_Seg_1_STATE_MASK)) | 
 881              		.loc 1 1078 0
 882 006c 03F00103 		and	r3, r3, #1
 883 0070 3B43     		orrs	r3, r3, r7
 884 0072 1370     		strb	r3, [r2]
 885              	.LVL107:
1082:.\Generated_Source\PSoC5/LCD_Seg_1.c ****     }
 886              		.loc 1 1082 0
 887 0074 0020     		movs	r0, #0
 888 0076 BDE8F081 		pop	{r4, r5, r6, r7, r8, pc}
 889              	.LVL108:
 890              	.L81:
 891              		.cfi_def_cfa_offset 0
 892              		.cfi_restore 4
 893              		.cfi_restore 5
 894              		.cfi_restore 6
 895              		.cfi_restore 7
 896              		.cfi_restore 8
 897              		.cfi_restore 14
1086:.\Generated_Source\PSoC5/LCD_Seg_1.c ****     }
 898              		.loc 1 1086 0
 899 007a 0120     		movs	r0, #1
 900              	.LVL109:
 901 007c 7047     		bx	lr
 902              	.L86:
 903 007e 00BF     		.align	2
 904              	.L85:
 905 0080 00000000 		.word	.LANCHOR2
 906 0084 6A580040 		.word	1073764458
 907              		.cfi_endproc
 908              	.LFE9:
 909              		.size	LCD_Seg_1_WriteInvertState, .-LCD_Seg_1_WriteInvertState
 910              		.section	.text.LCD_Seg_1_ClearDisplay,"ax",%progbits
ARM GAS  C:\Users\hari\AppData\Local\Temp\ccc0gtQ0.s 			page 43


 911              		.align	2
 912              		.global	LCD_Seg_1_ClearDisplay
 913              		.thumb
 914              		.thumb_func
 915              		.type	LCD_Seg_1_ClearDisplay, %function
 916              	LCD_Seg_1_ClearDisplay:
 917              	.LFB11:
1140:.\Generated_Source\PSoC5/LCD_Seg_1.c ****     uint16 i;
 918              		.loc 1 1140 0
 919              		.cfi_startproc
 920              		@ args = 0, pretend = 0, frame = 0
 921              		@ frame_needed = 0, uses_anonymous_args = 0
 922              	.LVL110:
1145:.\Generated_Source\PSoC5/LCD_Seg_1.c ****     {
 923              		.loc 1 1145 0
 924 0000 0023     		movs	r3, #0
 925 0002 05E0     		b	.L88
 926              	.LVL111:
 927              	.L89:
1147:.\Generated_Source\PSoC5/LCD_Seg_1.c ****     }
 928              		.loc 1 1147 0 discriminator 3
 929 0004 0E4A     		ldr	r2, .L94
 930 0006 1A44     		add	r2, r2, r3
 931 0008 0021     		movs	r1, #0
 932 000a 1172     		strb	r1, [r2, #8]
1145:.\Generated_Source\PSoC5/LCD_Seg_1.c ****     {
 933              		.loc 1 1145 0 discriminator 3
 934 000c 0133     		adds	r3, r3, #1
 935              	.LVL112:
 936 000e 9BB2     		uxth	r3, r3
 937              	.LVL113:
 938              	.L88:
1145:.\Generated_Source\PSoC5/LCD_Seg_1.c ****     {
 939              		.loc 1 1145 0 is_stmt 0 discriminator 1
 940 0010 4F2B     		cmp	r3, #79
 941 0012 F7D9     		bls	.L89
1140:.\Generated_Source\PSoC5/LCD_Seg_1.c ****     uint16 i;
 942              		.loc 1 1140 0 is_stmt 1
 943 0014 10B5     		push	{r4, lr}
 944              		.cfi_def_cfa_offset 8
 945              		.cfi_offset 4, -8
 946              		.cfi_offset 14, -4
 947 0016 0024     		movs	r4, #0
 948 0018 07E0     		b	.L90
 949              	.LVL114:
 950              	.L91:
1157:.\Generated_Source\PSoC5/LCD_Seg_1.c ****     }
 951              		.loc 1 1157 0 discriminator 3
 952 001a 0A4B     		ldr	r3, .L94+4
 953 001c 33F81400 		ldrh	r0, [r3, r4, lsl #1]
 954 0020 0121     		movs	r1, #1
 955 0022 FFF7FEFF 		bl	LCD_Seg_1_WritePixel
 956              	.LVL115:
1151:.\Generated_Source\PSoC5/LCD_Seg_1.c ****     {
 957              		.loc 1 1151 0 discriminator 3
 958 0026 0134     		adds	r4, r4, #1
 959              	.LVL116:
ARM GAS  C:\Users\hari\AppData\Local\Temp\ccc0gtQ0.s 			page 44


 960 0028 A4B2     		uxth	r4, r4
 961              	.LVL117:
 962              	.L90:
1151:.\Generated_Source\PSoC5/LCD_Seg_1.c ****     {
 963              		.loc 1 1151 0 is_stmt 0 discriminator 1
 964 002a 042C     		cmp	r4, #4
 965 002c F5D9     		bls	.L91
1161:.\Generated_Source\PSoC5/LCD_Seg_1.c ****                 LCD_Seg_1_INVERT_SHIFT);
 966              		.loc 1 1161 0 is_stmt 1
 967 002e 064B     		ldr	r3, .L94+8
 968 0030 1878     		ldrb	r0, [r3]	@ zero_extendqisi2
 969 0032 8008     		lsrs	r0, r0, #2
 970              	.LVL118:
1168:.\Generated_Source\PSoC5/LCD_Seg_1.c ****     {
 971              		.loc 1 1168 0
 972 0034 0128     		cmp	r0, #1
 973 0036 01D1     		bne	.L87
1170:.\Generated_Source\PSoC5/LCD_Seg_1.c ****     }
 974              		.loc 1 1170 0
 975 0038 FFF7FEFF 		bl	LCD_Seg_1_WriteInvertState
 976              	.LVL119:
 977              	.L87:
 978 003c 10BD     		pop	{r4, pc}
 979              	.LVL120:
 980              	.L95:
 981 003e 00BF     		.align	2
 982              	.L94:
 983 0040 00000000 		.word	.LANCHOR1
 984 0044 00000000 		.word	.LANCHOR2
 985 0048 6A580040 		.word	1073764458
 986              		.cfi_endproc
 987              	.LFE11:
 988              		.size	LCD_Seg_1_ClearDisplay, .-LCD_Seg_1_ClearDisplay
 989              		.section	.text.LCD_Seg_1_Init,"ax",%progbits
 990              		.align	2
 991              		.global	LCD_Seg_1_Init
 992              		.thumb
 993              		.thumb_func
 994              		.type	LCD_Seg_1_Init, %function
 995              	LCD_Seg_1_Init:
 996              	.LFB0:
 298:.\Generated_Source\PSoC5/LCD_Seg_1.c ****     /* LCD Timer configuration */
 997              		.loc 1 298 0
 998              		.cfi_startproc
 999              		@ args = 0, pretend = 0, frame = 0
 1000              		@ frame_needed = 0, uses_anonymous_args = 0
 1001 0000 38B5     		push	{r3, r4, r5, lr}
 1002              		.cfi_def_cfa_offset 16
 1003              		.cfi_offset 3, -16
 1004              		.cfi_offset 4, -12
 1005              		.cfi_offset 5, -8
 1006              		.cfi_offset 14, -4
 323:.\Generated_Source\PSoC5/LCD_Seg_1.c **** 
 1007              		.loc 1 323 0
 1008 0002 FFF7FEFF 		bl	LCD_Seg_1_ClearDisplay
 1009              	.LVL121:
 326:.\Generated_Source\PSoC5/LCD_Seg_1.c ****     LCD_Seg_1_LCDDAC_SWITCH_REG1_REG = LCD_Seg_1_LCDDAC_VOLTAGE_SEL;
ARM GAS  C:\Users\hari\AppData\Local\Temp\ccc0gtQ0.s 			page 45


 1010              		.loc 1 326 0
 1011 0006 0124     		movs	r4, #1
 1012 0008 174B     		ldr	r3, .L98
 1013 000a 1C70     		strb	r4, [r3]
 327:.\Generated_Source\PSoC5/LCD_Seg_1.c ****     LCD_Seg_1_LCDDAC_SWITCH_REG2_REG = LCD_Seg_1_LCDDAC_VOLTAGE_SEL;
 1014              		.loc 1 327 0
 1015 000c 0133     		adds	r3, r3, #1
 1016 000e 1C70     		strb	r4, [r3]
 328:.\Generated_Source\PSoC5/LCD_Seg_1.c ****     LCD_Seg_1_LCDDAC_SWITCH_REG3_REG = LCD_Seg_1_LCDDAC_VOLTAGE_SEL;
 1017              		.loc 1 328 0
 1018 0010 0133     		adds	r3, r3, #1
 1019 0012 1C70     		strb	r4, [r3]
 329:.\Generated_Source\PSoC5/LCD_Seg_1.c ****     LCD_Seg_1_LCDDAC_SWITCH_REG4_REG = LCD_Seg_1_LCDDAC_VOLTAGE_SEL;
 1020              		.loc 1 329 0
 1021 0014 0133     		adds	r3, r3, #1
 1022 0016 1C70     		strb	r4, [r3]
 330:.\Generated_Source\PSoC5/LCD_Seg_1.c **** 
 1023              		.loc 1 330 0
 1024 0018 0133     		adds	r3, r3, #1
 1025 001a 1C70     		strb	r4, [r3]
 333:.\Generated_Source\PSoC5/LCD_Seg_1.c ****         | LCD_Seg_1_BIAS_TYPE;
 1026              		.loc 1 333 0
 1027 001c 134A     		ldr	r2, .L98+4
 1028 001e 1378     		ldrb	r3, [r2]	@ zero_extendqisi2
 1029 0020 03F00303 		and	r3, r3, #3
 1030 0024 1370     		strb	r3, [r2]
 337:.\Generated_Source\PSoC5/LCD_Seg_1.c **** 
 1031              		.loc 1 337 0
 1032 0026 3F20     		movs	r0, #63
 1033 0028 FFF7FEFF 		bl	LCD_Seg_1_SetBias
 1034              	.LVL122:
 340:.\Generated_Source\PSoC5/LCD_Seg_1.c ****                                 LCD_Seg_1_LCDDRV_MODE0_SHIFT)) & ((uint8) LCD_Seg_1_LCDDRV_MODE0_MA
 1035              		.loc 1 340 0
 1036 002c 104A     		ldr	r2, .L98+8
 1037 002e 1378     		ldrb	r3, [r2]	@ zero_extendqisi2
 1038 0030 43F00203 		orr	r3, r3, #2
 1039 0034 1370     		strb	r3, [r2]
 344:.\Generated_Source\PSoC5/LCD_Seg_1.c ****                                      (uint8) LCD_Seg_1_CNTL_MODE_MASK);
 1040              		.loc 1 344 0
 1041 0036 0420     		movs	r0, #4
 1042 0038 F921     		movs	r1, #249
 1043 003a FFF7FEFF 		bl	LCD_Seg_1_WriteControlReg
 1044              	.LVL123:
 348:.\Generated_Source\PSoC5/LCD_Seg_1.c **** 
 1045              		.loc 1 348 0
 1046 003e 0D4D     		ldr	r5, .L98+12
 1047 0040 2C60     		str	r4, [r5]
 351:.\Generated_Source\PSoC5/LCD_Seg_1.c **** 
 1048              		.loc 1 351 0
 1049 0042 0020     		movs	r0, #0
 1050 0044 0C49     		ldr	r1, .L98+16
 1051 0046 FFF7FEFF 		bl	CyIntSetVector
 1052              	.LVL124:
 354:.\Generated_Source\PSoC5/LCD_Seg_1.c ****      
 1053              		.loc 1 354 0
 1054 004a 0020     		movs	r0, #0
 1055 004c 0721     		movs	r1, #7
ARM GAS  C:\Users\hari\AppData\Local\Temp\ccc0gtQ0.s 			page 46


 1056 004e FFF7FEFF 		bl	CyIntSetPriority
 1057              	.LVL125:
 359:.\Generated_Source\PSoC5/LCD_Seg_1.c **** 
 1058              		.loc 1 359 0
 1059 0052 0223     		movs	r3, #2
 1060 0054 2B60     		str	r3, [r5]
 362:.\Generated_Source\PSoC5/LCD_Seg_1.c **** 
 1061              		.loc 1 362 0
 1062 0056 2046     		mov	r0, r4
 1063 0058 0849     		ldr	r1, .L98+20
 1064 005a FFF7FEFF 		bl	CyIntSetVector
 1065              	.LVL126:
 365:.\Generated_Source\PSoC5/LCD_Seg_1.c ****     
 1066              		.loc 1 365 0
 1067 005e 2046     		mov	r0, r4
 1068 0060 0721     		movs	r1, #7
 1069 0062 FFF7FEFF 		bl	CyIntSetPriority
 1070              	.LVL127:
 1071 0066 38BD     		pop	{r3, r4, r5, pc}
 1072              	.L99:
 1073              		.align	2
 1074              	.L98:
 1075 0068 505B0040 		.word	1073765200
 1076 006c 68580040 		.word	1073764456
 1077 0070 6A580040 		.word	1073764458
 1078 0074 80E100E0 		.word	-536813184
 1079 0078 00000000 		.word	LCD_Seg_1_ISR
 1080 007c 00000000 		.word	LCD_Seg_1_WAKEUP_ISR
 1081              		.cfi_endproc
 1082              	.LFE0:
 1083              		.size	LCD_Seg_1_Init, .-LCD_Seg_1_Init
 1084              		.section	.text.LCD_Seg_1_Start,"ax",%progbits
 1085              		.align	2
 1086              		.global	LCD_Seg_1_Start
 1087              		.thumb
 1088              		.thumb_func
 1089              		.type	LCD_Seg_1_Start, %function
 1090              	LCD_Seg_1_Start:
 1091              	.LFB4:
 816:.\Generated_Source\PSoC5/LCD_Seg_1.c ****     uint8 status;
 1092              		.loc 1 816 0
 1093              		.cfi_startproc
 1094              		@ args = 0, pretend = 0, frame = 0
 1095              		@ frame_needed = 0, uses_anonymous_args = 0
 1096 0000 08B5     		push	{r3, lr}
 1097              		.cfi_def_cfa_offset 8
 1098              		.cfi_offset 3, -8
 1099              		.cfi_offset 14, -4
 820:.\Generated_Source\PSoC5/LCD_Seg_1.c ****     {
 1100              		.loc 1 820 0
 1101 0002 064B     		ldr	r3, .L103
 1102 0004 93F86130 		ldrb	r3, [r3, #97]	@ zero_extendqisi2
 1103 0008 2BB9     		cbnz	r3, .L101
 822:.\Generated_Source\PSoC5/LCD_Seg_1.c ****         LCD_Seg_1_Init();
 1104              		.loc 1 822 0
 1105 000a 0122     		movs	r2, #1
 1106 000c 034B     		ldr	r3, .L103
ARM GAS  C:\Users\hari\AppData\Local\Temp\ccc0gtQ0.s 			page 47


 1107 000e 83F86120 		strb	r2, [r3, #97]
 823:.\Generated_Source\PSoC5/LCD_Seg_1.c ****     }
 1108              		.loc 1 823 0
 1109 0012 FFF7FEFF 		bl	LCD_Seg_1_Init
 1110              	.LVL128:
 1111              	.L101:
 826:.\Generated_Source\PSoC5/LCD_Seg_1.c **** 
 1112              		.loc 1 826 0
 1113 0016 FFF7FEFF 		bl	LCD_Seg_1_Enable
 1114              	.LVL129:
 829:.\Generated_Source\PSoC5/LCD_Seg_1.c **** 
 1115              		.loc 1 829 0
 1116 001a 08BD     		pop	{r3, pc}
 1117              	.L104:
 1118              		.align	2
 1119              	.L103:
 1120 001c 00000000 		.word	.LANCHOR1
 1121              		.cfi_endproc
 1122              	.LFE4:
 1123              		.size	LCD_Seg_1_Start, .-LCD_Seg_1_Start
 1124              		.global	LCD_Seg_1_initVar
 1125              		.section	.rodata
 1126              		.align	2
 1127              		.set	.LANCHOR2,. + 0
 1128              		.type	LCD_Seg_1_commons, %object
 1129              		.size	LCD_Seg_1_commons, 10
 1130              	LCD_Seg_1_commons:
 1131 0000 2000     		.short	32
 1132 0002 2101     		.short	289
 1133 0004 2202     		.short	546
 1134 0006 2403     		.short	804
 1135 0008 2504     		.short	1061
 1136 000a 0000     		.data
 1137              		.align	2
 1138              		.set	.LANCHOR0,. + 0
 1139              		.type	LCD_Seg_1_frameTx, %object
 1140              		.size	LCD_Seg_1_frameTx, 2
 1141              	LCD_Seg_1_frameTx:
 1142 0000 80       		.byte	-128
 1143 0001 00       		.byte	0
 1144 0002 0000     		.bss
 1145              		.align	2
 1146              		.set	.LANCHOR1,. + 0
 1147              		.type	LCD_Seg_1_frameChannel, %object
 1148              		.size	LCD_Seg_1_frameChannel, 1
 1149              	LCD_Seg_1_frameChannel:
 1150 0000 00       		.space	1
 1151 0001 000000   		.space	3
 1152              		.type	LCD_Seg_1_frameTd, %object
 1153              		.size	LCD_Seg_1_frameTd, 2
 1154              	LCD_Seg_1_frameTd:
 1155 0004 0000     		.space	2
 1156 0006 0000     		.space	2
 1157              		.type	LCD_Seg_1_buffer, %object
 1158              		.size	LCD_Seg_1_buffer, 80
 1159              	LCD_Seg_1_buffer:
 1160 0008 00000000 		.space	80
ARM GAS  C:\Users\hari\AppData\Local\Temp\ccc0gtQ0.s 			page 48


 1160      00000000 
 1160      00000000 
 1160      00000000 
 1160      00000000 
 1161              		.type	LCD_Seg_1_lcdChannel, %object
 1162              		.size	LCD_Seg_1_lcdChannel, 1
 1163              	LCD_Seg_1_lcdChannel:
 1164 0058 00       		.space	1
 1165 0059 000000   		.space	3
 1166              		.type	LCD_Seg_1_lcdTd, %object
 1167              		.size	LCD_Seg_1_lcdTd, 5
 1168              	LCD_Seg_1_lcdTd:
 1169 005c 00000000 		.space	5
 1169      00
 1170              		.type	LCD_Seg_1_initVar, %object
 1171              		.size	LCD_Seg_1_initVar, 1
 1172              	LCD_Seg_1_initVar:
 1173 0061 00       		.space	1
 1174 0062 0000     		.text
 1175              	.Letext0:
 1176              		.file 2 ".\\Generated_Source\\PSoC5\\cytypes.h"
 1177              		.file 3 ".\\Generated_Source\\PSoC5\\LCD_Seg_1.h"
 1178              		.file 4 "Generated_Source\\PSoC5/LCD_Seg_1_Frame_Dma_dma.h"
 1179              		.file 5 "Generated_Source\\PSoC5/CYDMAC.H"
 1180              		.file 6 "Generated_Source\\PSoC5/LCD_Seg_1_Lcd_Dma_dma.h"
 1181              		.file 7 ".\\Generated_Source\\PSoC5\\CyLib.h"
 1182              		.file 8 "Generated_Source\\PSoC5/LCD_Seg_1_Int_Clock.h"
 1183              		.section	.debug_info,"",%progbits
 1184              	.Ldebug_info0:
 1185 0000 070A0000 		.4byte	0xa07
 1186 0004 0400     		.2byte	0x4
 1187 0006 00000000 		.4byte	.Ldebug_abbrev0
 1188 000a 04       		.byte	0x4
 1189 000b 01       		.uleb128 0x1
 1190 000c B9040000 		.4byte	.LASF71
 1191 0010 01       		.byte	0x1
 1192 0011 3B010000 		.4byte	.LASF72
 1193 0015 62020000 		.4byte	.LASF73
 1194 0019 00000000 		.4byte	.Ldebug_ranges0+0
 1195 001d 00000000 		.4byte	0
 1196 0021 00000000 		.4byte	.Ldebug_line0
 1197 0025 02       		.uleb128 0x2
 1198 0026 01       		.byte	0x1
 1199 0027 06       		.byte	0x6
 1200 0028 DA000000 		.4byte	.LASF0
 1201 002c 02       		.uleb128 0x2
 1202 002d 01       		.byte	0x1
 1203 002e 08       		.byte	0x8
 1204 002f 86030000 		.4byte	.LASF1
 1205 0033 02       		.uleb128 0x2
 1206 0034 02       		.byte	0x2
 1207 0035 05       		.byte	0x5
 1208 0036 D1030000 		.4byte	.LASF2
 1209 003a 02       		.uleb128 0x2
 1210 003b 02       		.byte	0x2
 1211 003c 07       		.byte	0x7
 1212 003d 4F020000 		.4byte	.LASF3
ARM GAS  C:\Users\hari\AppData\Local\Temp\ccc0gtQ0.s 			page 49


 1213 0041 02       		.uleb128 0x2
 1214 0042 04       		.byte	0x4
 1215 0043 05       		.byte	0x5
 1216 0044 25010000 		.4byte	.LASF4
 1217 0048 02       		.uleb128 0x2
 1218 0049 04       		.byte	0x4
 1219 004a 07       		.byte	0x7
 1220 004b D5010000 		.4byte	.LASF5
 1221 004f 02       		.uleb128 0x2
 1222 0050 08       		.byte	0x8
 1223 0051 05       		.byte	0x5
 1224 0052 CC000000 		.4byte	.LASF6
 1225 0056 02       		.uleb128 0x2
 1226 0057 08       		.byte	0x8
 1227 0058 07       		.byte	0x7
 1228 0059 6F000000 		.4byte	.LASF7
 1229 005d 03       		.uleb128 0x3
 1230 005e 04       		.byte	0x4
 1231 005f 05       		.byte	0x5
 1232 0060 696E7400 		.ascii	"int\000"
 1233 0064 02       		.uleb128 0x2
 1234 0065 04       		.byte	0x4
 1235 0066 07       		.byte	0x7
 1236 0067 C8010000 		.4byte	.LASF8
 1237 006b 04       		.uleb128 0x4
 1238 006c 2E010000 		.4byte	.LASF9
 1239 0070 02       		.byte	0x2
 1240 0071 B3       		.byte	0xb3
 1241 0072 2C000000 		.4byte	0x2c
 1242 0076 04       		.uleb128 0x4
 1243 0077 00000000 		.4byte	.LASF10
 1244 007b 02       		.byte	0x2
 1245 007c B4       		.byte	0xb4
 1246 007d 3A000000 		.4byte	0x3a
 1247 0081 04       		.uleb128 0x4
 1248 0082 60010000 		.4byte	.LASF11
 1249 0086 02       		.byte	0x2
 1250 0087 B5       		.byte	0xb5
 1251 0088 48000000 		.4byte	0x48
 1252 008c 02       		.uleb128 0x2
 1253 008d 04       		.byte	0x4
 1254 008e 04       		.byte	0x4
 1255 008f 7B030000 		.4byte	.LASF12
 1256 0093 02       		.uleb128 0x2
 1257 0094 08       		.byte	0x8
 1258 0095 04       		.byte	0x4
 1259 0096 34010000 		.4byte	.LASF13
 1260 009a 02       		.uleb128 0x2
 1261 009b 01       		.byte	0x1
 1262 009c 08       		.byte	0x8
 1263 009d 3A040000 		.4byte	.LASF14
 1264 00a1 05       		.uleb128 0x5
 1265 00a2 8A050000 		.4byte	.LASF15
 1266 00a6 02       		.byte	0x2
 1267 00a7 5501     		.2byte	0x155
 1268 00a9 48000000 		.4byte	0x48
 1269 00ad 05       		.uleb128 0x5
ARM GAS  C:\Users\hari\AppData\Local\Temp\ccc0gtQ0.s 			page 50


 1270 00ae 81030000 		.4byte	.LASF16
 1271 00b2 02       		.byte	0x2
 1272 00b3 5D01     		.2byte	0x15d
 1273 00b5 B9000000 		.4byte	0xb9
 1274 00b9 06       		.uleb128 0x6
 1275 00ba 6B000000 		.4byte	0x6b
 1276 00be 05       		.uleb128 0x5
 1277 00bf CD020000 		.4byte	.LASF17
 1278 00c3 02       		.byte	0x2
 1279 00c4 5F01     		.2byte	0x15f
 1280 00c6 CA000000 		.4byte	0xca
 1281 00ca 06       		.uleb128 0x6
 1282 00cb 81000000 		.4byte	0x81
 1283 00cf 05       		.uleb128 0x5
 1284 00d0 3F040000 		.4byte	.LASF18
 1285 00d4 02       		.byte	0x2
 1286 00d5 6F01     		.2byte	0x16f
 1287 00d7 DB000000 		.4byte	0xdb
 1288 00db 07       		.uleb128 0x7
 1289 00dc 04       		.byte	0x4
 1290 00dd E1000000 		.4byte	0xe1
 1291 00e1 08       		.uleb128 0x8
 1292 00e2 02       		.uleb128 0x2
 1293 00e3 04       		.byte	0x4
 1294 00e4 07       		.byte	0x7
 1295 00e5 0A030000 		.4byte	.LASF19
 1296 00e9 09       		.uleb128 0x9
 1297 00ea 32020000 		.4byte	.LASF74
 1298 00ee 02       		.byte	0x2
 1299 00ef 03       		.byte	0x3
 1300 00f0 40       		.byte	0x40
 1301 00f1 0E010000 		.4byte	0x10e
 1302 00f5 0A       		.uleb128 0xa
 1303 00f6 4C040000 		.4byte	.LASF20
 1304 00fa 03       		.byte	0x3
 1305 00fb 42       		.byte	0x42
 1306 00fc 6B000000 		.4byte	0x6b
 1307 0100 00       		.byte	0
 1308 0101 0A       		.uleb128 0xa
 1309 0102 33040000 		.4byte	.LASF21
 1310 0106 03       		.byte	0x3
 1311 0107 43       		.byte	0x43
 1312 0108 6B000000 		.4byte	0x6b
 1313 010c 01       		.byte	0x1
 1314 010d 00       		.byte	0
 1315 010e 0B       		.uleb128 0xb
 1316 010f 61030000 		.4byte	.LASF28
 1317 0113 01       		.byte	0x1
 1318 0114 3805     		.2byte	0x538
 1319 0116 00000000 		.4byte	.LFB14
 1320 011a 24000000 		.4byte	.LFE14-.LFB14
 1321 011e 01       		.uleb128 0x1
 1322 011f 9C       		.byte	0x9c
 1323 0120 4F010000 		.4byte	0x14f
 1324 0124 0C       		.uleb128 0xc
 1325 0125 B2010000 		.4byte	.LASF22
 1326 0129 01       		.byte	0x1
ARM GAS  C:\Users\hari\AppData\Local\Temp\ccc0gtQ0.s 			page 51


 1327 012a 3805     		.2byte	0x538
 1328 012c 6B000000 		.4byte	0x6b
 1329 0130 01       		.uleb128 0x1
 1330 0131 50       		.byte	0x50
 1331 0132 0C       		.uleb128 0xc
 1332 0133 88010000 		.4byte	.LASF23
 1333 0137 01       		.byte	0x1
 1334 0138 3805     		.2byte	0x538
 1335 013a 6B000000 		.4byte	0x6b
 1336 013e 01       		.uleb128 0x1
 1337 013f 51       		.byte	0x51
 1338 0140 0D       		.uleb128 0xd
 1339 0141 6900     		.ascii	"i\000"
 1340 0143 01       		.byte	0x1
 1341 0144 3A05     		.2byte	0x53a
 1342 0146 6B000000 		.4byte	0x6b
 1343 014a 00000000 		.4byte	.LLST0
 1344 014e 00       		.byte	0
 1345 014f 0E       		.uleb128 0xe
 1346 0150 EC030000 		.4byte	.LASF75
 1347 0154 01       		.byte	0x1
 1348 0155 DB01     		.2byte	0x1db
 1349 0157 6B000000 		.4byte	0x6b
 1350 015b 00000000 		.4byte	.LFB2
 1351 015f 3C010000 		.4byte	.LFE2-.LFB2
 1352 0163 01       		.uleb128 0x1
 1353 0164 9C       		.byte	0x9c
 1354 0165 15030000 		.4byte	0x315
 1355 0169 0F       		.uleb128 0xf
 1356 016a B2040000 		.4byte	.LASF24
 1357 016e 01       		.byte	0x1
 1358 016f DD01     		.2byte	0x1dd
 1359 0171 6B000000 		.4byte	0x6b
 1360 0175 2A000000 		.4byte	.LLST1
 1361 0179 0D       		.uleb128 0xd
 1362 017a 6900     		.ascii	"i\000"
 1363 017c 01       		.byte	0x1
 1364 017d DE01     		.2byte	0x1de
 1365 017f 6B000000 		.4byte	0x6b
 1366 0183 54000000 		.4byte	.LLST2
 1367 0187 0D       		.uleb128 0xd
 1368 0188 6A00     		.ascii	"j\000"
 1369 018a 01       		.byte	0x1
 1370 018b DF01     		.2byte	0x1df
 1371 018d 6B000000 		.4byte	0x6b
 1372 0191 72000000 		.4byte	.LLST3
 1373 0195 0F       		.uleb128 0xf
 1374 0196 67010000 		.4byte	.LASF25
 1375 019a 01       		.byte	0x1
 1376 019b E001     		.2byte	0x1e0
 1377 019d 81000000 		.4byte	0x81
 1378 01a1 A6000000 		.4byte	.LLST4
 1379 01a5 0F       		.uleb128 0xf
 1380 01a6 47000000 		.4byte	.LASF26
 1381 01aa 01       		.byte	0x1
 1382 01ab E101     		.2byte	0x1e1
 1383 01ad 81000000 		.4byte	0x81
ARM GAS  C:\Users\hari\AppData\Local\Temp\ccc0gtQ0.s 			page 52


 1384 01b1 D9000000 		.4byte	.LLST5
 1385 01b5 10       		.uleb128 0x10
 1386 01b6 94030000 		.4byte	.LASF27
 1387 01ba 01       		.byte	0x1
 1388 01bb E301     		.2byte	0x1e3
 1389 01bd 25030000 		.4byte	0x325
 1390 01c1 02       		.byte	0x2
 1391 01c2 02       		.byte	0x2
 1392 01c3 02       		.byte	0x2
 1393 01c4 11       		.uleb128 0x11
 1394 01c5 12000000 		.4byte	.LVL7
 1395 01c9 B6080000 		.4byte	0x8b6
 1396 01cd EB010000 		.4byte	0x1eb
 1397 01d1 12       		.uleb128 0x12
 1398 01d2 01       		.uleb128 0x1
 1399 01d3 53       		.byte	0x53
 1400 01d4 03       		.uleb128 0x3
 1401 01d5 0A       		.byte	0xa
 1402 01d6 0040     		.2byte	0x4000
 1403 01d8 12       		.uleb128 0x12
 1404 01d9 01       		.uleb128 0x1
 1405 01da 52       		.byte	0x52
 1406 01db 04       		.uleb128 0x4
 1407 01dc 75       		.byte	0x75
 1408 01dd 00       		.sleb128 0
 1409 01de 40       		.byte	0x40
 1410 01df 25       		.byte	0x25
 1411 01e0 12       		.uleb128 0x12
 1412 01e1 01       		.uleb128 0x1
 1413 01e2 51       		.byte	0x51
 1414 01e3 01       		.uleb128 0x1
 1415 01e4 30       		.byte	0x30
 1416 01e5 12       		.uleb128 0x12
 1417 01e6 01       		.uleb128 0x1
 1418 01e7 50       		.byte	0x50
 1419 01e8 01       		.uleb128 0x1
 1420 01e9 30       		.byte	0x30
 1421 01ea 00       		.byte	0
 1422 01eb 13       		.uleb128 0x13
 1423 01ec 28000000 		.4byte	.LVL9
 1424 01f0 DA080000 		.4byte	0x8da
 1425 01f4 11       		.uleb128 0x11
 1426 01f5 4A000000 		.4byte	.LVL13
 1427 01f9 E5080000 		.4byte	0x8e5
 1428 01fd 0C020000 		.4byte	0x20c
 1429 0201 12       		.uleb128 0x12
 1430 0202 01       		.uleb128 0x1
 1431 0203 53       		.byte	0x53
 1432 0204 01       		.uleb128 0x1
 1433 0205 31       		.byte	0x31
 1434 0206 12       		.uleb128 0x12
 1435 0207 01       		.uleb128 0x1
 1436 0208 51       		.byte	0x51
 1437 0209 01       		.uleb128 0x1
 1438 020a 31       		.byte	0x31
 1439 020b 00       		.byte	0
 1440 020c 11       		.uleb128 0x11
ARM GAS  C:\Users\hari\AppData\Local\Temp\ccc0gtQ0.s 			page 53


 1441 020d 58000000 		.4byte	.LVL15
 1442 0211 09090000 		.4byte	0x909
 1443 0215 27020000 		.4byte	0x227
 1444 0219 12       		.uleb128 0x12
 1445 021a 01       		.uleb128 0x1
 1446 021b 52       		.byte	0x52
 1447 021c 03       		.uleb128 0x3
 1448 021d 0A       		.byte	0xa
 1449 021e 7B64     		.2byte	0x647b
 1450 0220 12       		.uleb128 0x12
 1451 0221 01       		.uleb128 0x1
 1452 0222 51       		.byte	0x51
 1453 0223 02       		.uleb128 0x2
 1454 0224 74       		.byte	0x74
 1455 0225 00       		.sleb128 0
 1456 0226 00       		.byte	0
 1457 0227 11       		.uleb128 0x11
 1458 0228 64000000 		.4byte	.LVL16
 1459 022c E5080000 		.4byte	0x8e5
 1460 0230 3F020000 		.4byte	0x23f
 1461 0234 12       		.uleb128 0x12
 1462 0235 01       		.uleb128 0x1
 1463 0236 53       		.byte	0x53
 1464 0237 01       		.uleb128 0x1
 1465 0238 31       		.byte	0x31
 1466 0239 12       		.uleb128 0x12
 1467 023a 01       		.uleb128 0x1
 1468 023b 51       		.byte	0x51
 1469 023c 01       		.uleb128 0x1
 1470 023d 31       		.byte	0x31
 1471 023e 00       		.byte	0
 1472 023f 11       		.uleb128 0x11
 1473 0240 72000000 		.4byte	.LVL17
 1474 0244 09090000 		.4byte	0x909
 1475 0248 5A020000 		.4byte	0x25a
 1476 024c 12       		.uleb128 0x12
 1477 024d 01       		.uleb128 0x1
 1478 024e 52       		.byte	0x52
 1479 024f 03       		.uleb128 0x3
 1480 0250 0A       		.byte	0xa
 1481 0251 7B64     		.2byte	0x647b
 1482 0253 12       		.uleb128 0x12
 1483 0254 01       		.uleb128 0x1
 1484 0255 51       		.byte	0x51
 1485 0256 02       		.uleb128 0x2
 1486 0257 74       		.byte	0x74
 1487 0258 01       		.sleb128 1
 1488 0259 00       		.byte	0
 1489 025a 13       		.uleb128 0x13
 1490 025b 7C000000 		.4byte	.LVL18
 1491 025f 28090000 		.4byte	0x928
 1492 0263 11       		.uleb128 0x11
 1493 0264 84000000 		.4byte	.LVL19
 1494 0268 42090000 		.4byte	0x942
 1495 026c 76020000 		.4byte	0x276
 1496 0270 12       		.uleb128 0x12
 1497 0271 01       		.uleb128 0x1
ARM GAS  C:\Users\hari\AppData\Local\Temp\ccc0gtQ0.s 			page 54


 1498 0272 51       		.byte	0x51
 1499 0273 01       		.uleb128 0x1
 1500 0274 31       		.byte	0x31
 1501 0275 00       		.byte	0
 1502 0276 11       		.uleb128 0x11
 1503 0277 98000000 		.4byte	.LVL21
 1504 027b 5C090000 		.4byte	0x95c
 1505 027f 9D020000 		.4byte	0x29d
 1506 0283 12       		.uleb128 0x12
 1507 0284 01       		.uleb128 0x1
 1508 0285 53       		.byte	0x53
 1509 0286 03       		.uleb128 0x3
 1510 0287 0A       		.byte	0xa
 1511 0288 0040     		.2byte	0x4000
 1512 028a 12       		.uleb128 0x12
 1513 028b 01       		.uleb128 0x1
 1514 028c 52       		.byte	0x52
 1515 028d 04       		.uleb128 0x4
 1516 028e 75       		.byte	0x75
 1517 028f 00       		.sleb128 0
 1518 0290 40       		.byte	0x40
 1519 0291 25       		.byte	0x25
 1520 0292 12       		.uleb128 0x12
 1521 0293 01       		.uleb128 0x1
 1522 0294 51       		.byte	0x51
 1523 0295 01       		.uleb128 0x1
 1524 0296 30       		.byte	0x30
 1525 0297 12       		.uleb128 0x12
 1526 0298 01       		.uleb128 0x1
 1527 0299 50       		.byte	0x50
 1528 029a 01       		.uleb128 0x1
 1529 029b 30       		.byte	0x30
 1530 029c 00       		.byte	0
 1531 029d 13       		.uleb128 0x13
 1532 029e AA000000 		.4byte	.LVL24
 1533 02a2 DA080000 		.4byte	0x8da
 1534 02a6 11       		.uleb128 0x11
 1535 02a7 DC000000 		.4byte	.LVL30
 1536 02ab E5080000 		.4byte	0x8e5
 1537 02af BE020000 		.4byte	0x2be
 1538 02b3 12       		.uleb128 0x12
 1539 02b4 01       		.uleb128 0x1
 1540 02b5 53       		.byte	0x53
 1541 02b6 01       		.uleb128 0x1
 1542 02b7 37       		.byte	0x37
 1543 02b8 12       		.uleb128 0x12
 1544 02b9 01       		.uleb128 0x1
 1545 02ba 51       		.byte	0x51
 1546 02bb 01       		.uleb128 0x1
 1547 02bc 32       		.byte	0x32
 1548 02bd 00       		.byte	0
 1549 02be 11       		.uleb128 0x11
 1550 02bf F2000000 		.4byte	.LVL31
 1551 02c3 E5080000 		.4byte	0x8e5
 1552 02c7 D6020000 		.4byte	0x2d6
 1553 02cb 12       		.uleb128 0x12
 1554 02cc 01       		.uleb128 0x1
ARM GAS  C:\Users\hari\AppData\Local\Temp\ccc0gtQ0.s 			page 55


 1555 02cd 53       		.byte	0x53
 1556 02ce 01       		.uleb128 0x1
 1557 02cf 37       		.byte	0x37
 1558 02d0 12       		.uleb128 0x12
 1559 02d1 01       		.uleb128 0x1
 1560 02d2 51       		.byte	0x51
 1561 02d3 01       		.uleb128 0x1
 1562 02d4 32       		.byte	0x32
 1563 02d5 00       		.byte	0
 1564 02d6 11       		.uleb128 0x11
 1565 02d7 0C010000 		.4byte	.LVL32
 1566 02db 09090000 		.4byte	0x909
 1567 02df FC020000 		.4byte	0x2fc
 1568 02e3 12       		.uleb128 0x12
 1569 02e4 01       		.uleb128 0x1
 1570 02e5 52       		.byte	0x52
 1571 02e6 03       		.uleb128 0x3
 1572 02e7 0A       		.byte	0xa
 1573 02e8 8250     		.2byte	0x5082
 1574 02ea 12       		.uleb128 0x12
 1575 02eb 01       		.uleb128 0x1
 1576 02ec 51       		.byte	0x51
 1577 02ed 0D       		.uleb128 0xd
 1578 02ee 74       		.byte	0x74
 1579 02ef 00       		.sleb128 0
 1580 02f0 34       		.byte	0x34
 1581 02f1 24       		.byte	0x24
 1582 02f2 75       		.byte	0x75
 1583 02f3 00       		.sleb128 0
 1584 02f4 0A       		.byte	0xa
 1585 02f5 FFFF     		.2byte	0xffff
 1586 02f7 1A       		.byte	0x1a
 1587 02f8 22       		.byte	0x22
 1588 02f9 23       		.byte	0x23
 1589 02fa 02       		.uleb128 0x2
 1590 02fb 00       		.byte	0
 1591 02fc 13       		.uleb128 0x13
 1592 02fd 24010000 		.4byte	.LVL36
 1593 0301 28090000 		.4byte	0x928
 1594 0305 14       		.uleb128 0x14
 1595 0306 2E010000 		.4byte	.LVL37
 1596 030a 42090000 		.4byte	0x942
 1597 030e 12       		.uleb128 0x12
 1598 030f 01       		.uleb128 0x1
 1599 0310 51       		.byte	0x51
 1600 0311 01       		.uleb128 0x1
 1601 0312 31       		.byte	0x31
 1602 0313 00       		.byte	0
 1603 0314 00       		.byte	0
 1604 0315 15       		.uleb128 0x15
 1605 0316 E9000000 		.4byte	0xe9
 1606 031a 25030000 		.4byte	0x325
 1607 031e 16       		.uleb128 0x16
 1608 031f E2000000 		.4byte	0xe2
 1609 0323 00       		.byte	0
 1610 0324 00       		.byte	0
 1611 0325 17       		.uleb128 0x17
ARM GAS  C:\Users\hari\AppData\Local\Temp\ccc0gtQ0.s 			page 56


 1612 0326 15030000 		.4byte	0x315
 1613 032a 0B       		.uleb128 0xb
 1614 032b F5020000 		.4byte	.LASF29
 1615 032f 01       		.byte	0x1
 1616 0330 EF02     		.2byte	0x2ef
 1617 0332 00000000 		.4byte	.LFB3
 1618 0336 50000000 		.4byte	.LFE3-.LFB3
 1619 033a 01       		.uleb128 0x1
 1620 033b 9C       		.byte	0x9c
 1621 033c 85030000 		.4byte	0x385
 1622 0340 0D       		.uleb128 0xd
 1623 0341 6900     		.ascii	"i\000"
 1624 0343 01       		.byte	0x1
 1625 0344 F102     		.2byte	0x2f1
 1626 0346 6B000000 		.4byte	0x6b
 1627 034a 01010000 		.4byte	.LLST6
 1628 034e 13       		.uleb128 0x13
 1629 034f 06000000 		.4byte	.LVL39
 1630 0353 80090000 		.4byte	0x980
 1631 0357 13       		.uleb128 0x13
 1632 0358 10000000 		.4byte	.LVL40
 1633 035c 87090000 		.4byte	0x987
 1634 0360 13       		.uleb128 0x13
 1635 0361 14000000 		.4byte	.LVL41
 1636 0365 9C090000 		.4byte	0x99c
 1637 0369 13       		.uleb128 0x13
 1638 036a 1A000000 		.4byte	.LVL42
 1639 036e 87090000 		.4byte	0x987
 1640 0372 13       		.uleb128 0x13
 1641 0373 28000000 		.4byte	.LVL44
 1642 0377 A3090000 		.4byte	0x9a3
 1643 037b 13       		.uleb128 0x13
 1644 037c 40000000 		.4byte	.LVL49
 1645 0380 A3090000 		.4byte	0x9a3
 1646 0384 00       		.byte	0
 1647 0385 18       		.uleb128 0x18
 1648 0386 DB030000 		.4byte	.LASF33
 1649 038a 01       		.byte	0x1
 1650 038b 8801     		.2byte	0x188
 1651 038d 6B000000 		.4byte	0x6b
 1652 0391 00000000 		.4byte	.LFB1
 1653 0395 64000000 		.4byte	.LFE1-.LFB1
 1654 0399 01       		.uleb128 0x1
 1655 039a 9C       		.byte	0x9c
 1656 039b 12040000 		.4byte	0x412
 1657 039f 0F       		.uleb128 0xf
 1658 03a0 B2040000 		.4byte	.LASF24
 1659 03a4 01       		.byte	0x1
 1660 03a5 8A01     		.2byte	0x18a
 1661 03a7 6B000000 		.4byte	0x6b
 1662 03ab 41010000 		.4byte	.LLST7
 1663 03af 0F       		.uleb128 0xf
 1664 03b0 01010000 		.4byte	.LASF30
 1665 03b4 01       		.byte	0x1
 1666 03b5 8B01     		.2byte	0x18b
 1667 03b7 6B000000 		.4byte	0x6b
 1668 03bb 54010000 		.4byte	.LLST8
ARM GAS  C:\Users\hari\AppData\Local\Temp\ccc0gtQ0.s 			page 57


 1669 03bf 13       		.uleb128 0x13
 1670 03c0 06000000 		.4byte	.LVL53
 1671 03c4 B4090000 		.4byte	0x9b4
 1672 03c8 13       		.uleb128 0x13
 1673 03c9 1E000000 		.4byte	.LVL54
 1674 03cd BF090000 		.4byte	0x9bf
 1675 03d1 13       		.uleb128 0x13
 1676 03d2 22000000 		.4byte	.LVL55
 1677 03d6 D0090000 		.4byte	0x9d0
 1678 03da 13       		.uleb128 0x13
 1679 03db 26000000 		.4byte	.LVL56
 1680 03df 4F010000 		.4byte	0x14f
 1681 03e3 11       		.uleb128 0x11
 1682 03e4 42000000 		.4byte	.LVL58
 1683 03e8 0E010000 		.4byte	0x10e
 1684 03ec FC030000 		.4byte	0x3fc
 1685 03f0 12       		.uleb128 0x12
 1686 03f1 01       		.uleb128 0x1
 1687 03f2 51       		.byte	0x51
 1688 03f3 02       		.uleb128 0x2
 1689 03f4 09       		.byte	0x9
 1690 03f5 F7       		.byte	0xf7
 1691 03f6 12       		.uleb128 0x12
 1692 03f7 01       		.uleb128 0x1
 1693 03f8 50       		.byte	0x50
 1694 03f9 01       		.uleb128 0x1
 1695 03fa 38       		.byte	0x38
 1696 03fb 00       		.byte	0
 1697 03fc 14       		.uleb128 0x14
 1698 03fd 4A000000 		.4byte	.LVL59
 1699 0401 0E010000 		.4byte	0x10e
 1700 0405 12       		.uleb128 0x12
 1701 0406 01       		.uleb128 0x1
 1702 0407 51       		.byte	0x51
 1703 0408 02       		.uleb128 0x2
 1704 0409 74       		.byte	0x74
 1705 040a 00       		.sleb128 0
 1706 040b 12       		.uleb128 0x12
 1707 040c 01       		.uleb128 0x1
 1708 040d 50       		.byte	0x50
 1709 040e 01       		.uleb128 0x1
 1710 040f 31       		.byte	0x31
 1711 0410 00       		.byte	0
 1712 0411 00       		.byte	0
 1713 0412 19       		.uleb128 0x19
 1714 0413 BD000000 		.4byte	.LASF43
 1715 0417 01       		.byte	0x1
 1716 0418 5003     		.2byte	0x350
 1717 041a 00000000 		.4byte	.LFB5
 1718 041e 54000000 		.4byte	.LFE5-.LFB5
 1719 0422 01       		.uleb128 0x1
 1720 0423 9C       		.byte	0x9c
 1721 0424 76040000 		.4byte	0x476
 1722 0428 0F       		.uleb128 0xf
 1723 0429 01010000 		.4byte	.LASF30
 1724 042d 01       		.byte	0x1
 1725 042e 5203     		.2byte	0x352
ARM GAS  C:\Users\hari\AppData\Local\Temp\ccc0gtQ0.s 			page 58


 1726 0430 6B000000 		.4byte	0x6b
 1727 0434 67010000 		.4byte	.LLST9
 1728 0438 11       		.uleb128 0x11
 1729 0439 0A000000 		.4byte	.LVL61
 1730 043d 0E010000 		.4byte	0x10e
 1731 0441 51040000 		.4byte	0x451
 1732 0445 12       		.uleb128 0x12
 1733 0446 01       		.uleb128 0x1
 1734 0447 51       		.byte	0x51
 1735 0448 02       		.uleb128 0x2
 1736 0449 09       		.byte	0x9
 1737 044a FE       		.byte	0xfe
 1738 044b 12       		.uleb128 0x12
 1739 044c 01       		.uleb128 0x1
 1740 044d 50       		.byte	0x50
 1741 044e 01       		.uleb128 0x1
 1742 044f 30       		.byte	0x30
 1743 0450 00       		.byte	0
 1744 0451 13       		.uleb128 0x13
 1745 0452 28000000 		.4byte	.LVL62
 1746 0456 B4090000 		.4byte	0x9b4
 1747 045a 13       		.uleb128 0x13
 1748 045b 40000000 		.4byte	.LVL63
 1749 045f BF090000 		.4byte	0x9bf
 1750 0463 13       		.uleb128 0x13
 1751 0464 44000000 		.4byte	.LVL64
 1752 0468 2A030000 		.4byte	0x32a
 1753 046c 13       		.uleb128 0x13
 1754 046d 48000000 		.4byte	.LVL65
 1755 0471 D7090000 		.4byte	0x9d7
 1756 0475 00       		.byte	0
 1757 0476 1A       		.uleb128 0x1a
 1758 0477 B9020000 		.4byte	.LASF31
 1759 047b 01       		.byte	0x1
 1760 047c 8D03     		.2byte	0x38d
 1761 047e 00000000 		.4byte	.LFB6
 1762 0482 10000000 		.4byte	.LFE6-.LFB6
 1763 0486 01       		.uleb128 0x1
 1764 0487 9C       		.byte	0x9c
 1765 0488 1A       		.uleb128 0x1a
 1766 0489 10010000 		.4byte	.LASF32
 1767 048d 01       		.byte	0x1
 1768 048e A903     		.2byte	0x3a9
 1769 0490 00000000 		.4byte	.LFB7
 1770 0494 10000000 		.4byte	.LFE7-.LFB7
 1771 0498 01       		.uleb128 0x1
 1772 0499 9C       		.byte	0x9c
 1773 049a 18       		.uleb128 0x18
 1774 049b 5D000000 		.4byte	.LASF34
 1775 049f 01       		.byte	0x1
 1776 04a0 CA03     		.2byte	0x3ca
 1777 04a2 6B000000 		.4byte	0x6b
 1778 04a6 00000000 		.4byte	.LFB8
 1779 04aa 14000000 		.4byte	.LFE8-.LFB8
 1780 04ae 01       		.uleb128 0x1
 1781 04af 9C       		.byte	0x9c
 1782 04b0 D5040000 		.4byte	0x4d5
ARM GAS  C:\Users\hari\AppData\Local\Temp\ccc0gtQ0.s 			page 59


 1783 04b4 1B       		.uleb128 0x1b
 1784 04b5 E6000000 		.4byte	.LASF35
 1785 04b9 01       		.byte	0x1
 1786 04ba CA03     		.2byte	0x3ca
 1787 04bc 6B000000 		.4byte	0x6b
 1788 04c0 7A010000 		.4byte	.LLST10
 1789 04c4 0F       		.uleb128 0xf
 1790 04c5 B2040000 		.4byte	.LASF24
 1791 04c9 01       		.byte	0x1
 1792 04ca CC03     		.2byte	0x3cc
 1793 04cc 6B000000 		.4byte	0x6b
 1794 04d0 B2010000 		.4byte	.LLST11
 1795 04d4 00       		.byte	0
 1796 04d5 1C       		.uleb128 0x1c
 1797 04d6 1D000000 		.4byte	.LASF76
 1798 04da 01       		.byte	0x1
 1799 04db 5404     		.2byte	0x454
 1800 04dd 6B000000 		.4byte	0x6b
 1801 04e1 00000000 		.4byte	.LFB10
 1802 04e5 10000000 		.4byte	.LFE10-.LFB10
 1803 04e9 01       		.uleb128 0x1
 1804 04ea 9C       		.byte	0x9c
 1805 04eb 18       		.uleb128 0x18
 1806 04ec 8D010000 		.4byte	.LASF36
 1807 04f0 01       		.byte	0x1
 1808 04f1 FC04     		.2byte	0x4fc
 1809 04f3 6B000000 		.4byte	0x6b
 1810 04f7 00000000 		.4byte	.LFB13
 1811 04fb 28000000 		.4byte	.LFE13-.LFB13
 1812 04ff 01       		.uleb128 0x1
 1813 0500 9C       		.byte	0x9c
 1814 0501 56050000 		.4byte	0x556
 1815 0505 1B       		.uleb128 0x1b
 1816 0506 13030000 		.4byte	.LASF37
 1817 050a 01       		.byte	0x1
 1818 050b FC04     		.2byte	0x4fc
 1819 050d 76000000 		.4byte	0x76
 1820 0511 D1010000 		.4byte	.LLST12
 1821 0515 0F       		.uleb128 0xf
 1822 0516 10020000 		.4byte	.LASF38
 1823 051a 01       		.byte	0x1
 1824 051b FE04     		.2byte	0x4fe
 1825 051d 6B000000 		.4byte	0x6b
 1826 0521 0B020000 		.4byte	.LLST13
 1827 0525 0D       		.uleb128 0xd
 1828 0526 726F7700 		.ascii	"row\000"
 1829 052a 01       		.byte	0x1
 1830 052b FF04     		.2byte	0x4ff
 1831 052d 6B000000 		.4byte	0x6b
 1832 0531 29020000 		.4byte	.LLST14
 1833 0535 0F       		.uleb128 0xf
 1834 0536 AD010000 		.4byte	.LASF39
 1835 053a 01       		.byte	0x1
 1836 053b 0005     		.2byte	0x500
 1837 053d 6B000000 		.4byte	0x6b
 1838 0541 41020000 		.4byte	.LLST15
 1839 0545 0D       		.uleb128 0xd
ARM GAS  C:\Users\hari\AppData\Local\Temp\ccc0gtQ0.s 			page 60


 1840 0546 70696E00 		.ascii	"pin\000"
 1841 054a 01       		.byte	0x1
 1842 054b 0105     		.2byte	0x501
 1843 054d 6B000000 		.4byte	0x6b
 1844 0551 59020000 		.4byte	.LLST16
 1845 0555 00       		.byte	0
 1846 0556 18       		.uleb128 0x18
 1847 0557 03040000 		.4byte	.LASF40
 1848 055b 01       		.byte	0x1
 1849 055c B504     		.2byte	0x4b5
 1850 055e 6B000000 		.4byte	0x6b
 1851 0562 00000000 		.4byte	.LFB12
 1852 0566 48000000 		.4byte	.LFE12-.LFB12
 1853 056a 01       		.uleb128 0x1
 1854 056b 9C       		.byte	0x9c
 1855 056c F1050000 		.4byte	0x5f1
 1856 0570 1B       		.uleb128 0x1b
 1857 0571 13030000 		.4byte	.LASF37
 1858 0575 01       		.byte	0x1
 1859 0576 B504     		.2byte	0x4b5
 1860 0578 76000000 		.4byte	0x76
 1861 057c 6C020000 		.4byte	.LLST17
 1862 0580 1B       		.uleb128 0x1b
 1863 0581 10020000 		.4byte	.LASF38
 1864 0585 01       		.byte	0x1
 1865 0586 B504     		.2byte	0x4b5
 1866 0588 6B000000 		.4byte	0x6b
 1867 058c A6020000 		.4byte	.LLST18
 1868 0590 0F       		.uleb128 0xf
 1869 0591 88010000 		.4byte	.LASF23
 1870 0595 01       		.byte	0x1
 1871 0596 B704     		.2byte	0x4b7
 1872 0598 6B000000 		.4byte	0x6b
 1873 059c E8020000 		.4byte	.LLST19
 1874 05a0 0D       		.uleb128 0xd
 1875 05a1 726F7700 		.ascii	"row\000"
 1876 05a5 01       		.byte	0x1
 1877 05a6 B804     		.2byte	0x4b8
 1878 05a8 6B000000 		.4byte	0x6b
 1879 05ac 16030000 		.4byte	.LLST20
 1880 05b0 0F       		.uleb128 0xf
 1881 05b1 AD010000 		.4byte	.LASF39
 1882 05b5 01       		.byte	0x1
 1883 05b6 B904     		.2byte	0x4b9
 1884 05b8 6B000000 		.4byte	0x6b
 1885 05bc 2E030000 		.4byte	.LLST21
 1886 05c0 0D       		.uleb128 0xd
 1887 05c1 70696E00 		.ascii	"pin\000"
 1888 05c5 01       		.byte	0x1
 1889 05c6 BA04     		.2byte	0x4ba
 1890 05c8 6B000000 		.4byte	0x6b
 1891 05cc 46030000 		.4byte	.LLST22
 1892 05d0 0F       		.uleb128 0xf
 1893 05d1 B2040000 		.4byte	.LASF24
 1894 05d5 01       		.byte	0x1
 1895 05d6 BB04     		.2byte	0x4bb
 1896 05d8 6B000000 		.4byte	0x6b
ARM GAS  C:\Users\hari\AppData\Local\Temp\ccc0gtQ0.s 			page 61


 1897 05dc 59030000 		.4byte	.LLST23
 1898 05e0 14       		.uleb128 0x14
 1899 05e1 1A000000 		.4byte	.LVL80
 1900 05e5 EB040000 		.4byte	0x4eb
 1901 05e9 12       		.uleb128 0x12
 1902 05ea 01       		.uleb128 0x1
 1903 05eb 50       		.byte	0x50
 1904 05ec 02       		.uleb128 0x2
 1905 05ed 74       		.byte	0x74
 1906 05ee 00       		.sleb128 0
 1907 05ef 00       		.byte	0
 1908 05f0 00       		.byte	0
 1909 05f1 18       		.uleb128 0x18
 1910 05f2 18040000 		.4byte	.LASF41
 1911 05f6 01       		.byte	0x1
 1912 05f7 F503     		.2byte	0x3f5
 1913 05f9 6B000000 		.4byte	0x6b
 1914 05fd 00000000 		.4byte	.LFB9
 1915 0601 88000000 		.4byte	.LFE9-.LFB9
 1916 0605 01       		.uleb128 0x1
 1917 0606 9C       		.byte	0x9c
 1918 0607 A4060000 		.4byte	0x6a4
 1919 060b 1B       		.uleb128 0x1b
 1920 060c 53040000 		.4byte	.LASF42
 1921 0610 01       		.byte	0x1
 1922 0611 F503     		.2byte	0x3f5
 1923 0613 6B000000 		.4byte	0x6b
 1924 0617 78030000 		.4byte	.LLST24
 1925 061b 0F       		.uleb128 0xf
 1926 061c B2040000 		.4byte	.LASF24
 1927 0620 01       		.byte	0x1
 1928 0621 F703     		.2byte	0x3f7
 1929 0623 6B000000 		.4byte	0x6b
 1930 0627 B2030000 		.4byte	.LLST25
 1931 062b 0F       		.uleb128 0xf
 1932 062c 10020000 		.4byte	.LASF38
 1933 0630 01       		.byte	0x1
 1934 0631 F803     		.2byte	0x3f8
 1935 0633 6B000000 		.4byte	0x6b
 1936 0637 C6030000 		.4byte	.LLST26
 1937 063b 0F       		.uleb128 0xf
 1938 063c 13030000 		.4byte	.LASF37
 1939 0640 01       		.byte	0x1
 1940 0641 F903     		.2byte	0x3f9
 1941 0643 76000000 		.4byte	0x76
 1942 0647 D9030000 		.4byte	.LLST27
 1943 064b 0D       		.uleb128 0xd
 1944 064c 6A00     		.ascii	"j\000"
 1945 064e 01       		.byte	0x1
 1946 064f FA03     		.2byte	0x3fa
 1947 0651 76000000 		.4byte	0x76
 1948 0655 F7030000 		.4byte	.LLST28
 1949 0659 0D       		.uleb128 0xd
 1950 065a 6900     		.ascii	"i\000"
 1951 065c 01       		.byte	0x1
 1952 065d FB03     		.2byte	0x3fb
 1953 065f 6B000000 		.4byte	0x6b
ARM GAS  C:\Users\hari\AppData\Local\Temp\ccc0gtQ0.s 			page 62


 1954 0663 21040000 		.4byte	.LLST29
 1955 0667 11       		.uleb128 0x11
 1956 0668 34000000 		.4byte	.LVL98
 1957 066c 56050000 		.4byte	0x556
 1958 0670 81060000 		.4byte	0x681
 1959 0674 12       		.uleb128 0x12
 1960 0675 01       		.uleb128 0x1
 1961 0676 51       		.byte	0x51
 1962 0677 02       		.uleb128 0x2
 1963 0678 76       		.byte	0x76
 1964 0679 00       		.sleb128 0
 1965 067a 12       		.uleb128 0x12
 1966 067b 01       		.uleb128 0x1
 1967 067c 50       		.byte	0x50
 1968 067d 02       		.uleb128 0x2
 1969 067e 74       		.byte	0x74
 1970 067f 00       		.sleb128 0
 1971 0680 00       		.byte	0
 1972 0681 14       		.uleb128 0x14
 1973 0682 5C000000 		.4byte	.LVL104
 1974 0686 56050000 		.4byte	0x556
 1975 068a 12       		.uleb128 0x12
 1976 068b 01       		.uleb128 0x1
 1977 068c 51       		.byte	0x51
 1978 068d 04       		.uleb128 0x4
 1979 068e 76       		.byte	0x76
 1980 068f 00       		.sleb128 0
 1981 0690 31       		.byte	0x31
 1982 0691 27       		.byte	0x27
 1983 0692 12       		.uleb128 0x12
 1984 0693 01       		.uleb128 0x1
 1985 0694 50       		.byte	0x50
 1986 0695 0C       		.uleb128 0xc
 1987 0696 74       		.byte	0x74
 1988 0697 00       		.sleb128 0
 1989 0698 31       		.byte	0x31
 1990 0699 24       		.byte	0x24
 1991 069a 03       		.byte	0x3
 1992 069b 00000000 		.4byte	.LANCHOR2
 1993 069f 22       		.byte	0x22
 1994 06a0 94       		.byte	0x94
 1995 06a1 02       		.byte	0x2
 1996 06a2 00       		.byte	0
 1997 06a3 00       		.byte	0
 1998 06a4 19       		.uleb128 0x19
 1999 06a5 E7010000 		.4byte	.LASF44
 2000 06a9 01       		.byte	0x1
 2001 06aa 7304     		.2byte	0x473
 2002 06ac 00000000 		.4byte	.LFB11
 2003 06b0 4C000000 		.4byte	.LFE11-.LFB11
 2004 06b4 01       		.uleb128 0x1
 2005 06b5 9C       		.byte	0x9c
 2006 06b6 05070000 		.4byte	0x705
 2007 06ba 0D       		.uleb128 0xd
 2008 06bb 6900     		.ascii	"i\000"
 2009 06bd 01       		.byte	0x1
 2010 06be 7504     		.2byte	0x475
ARM GAS  C:\Users\hari\AppData\Local\Temp\ccc0gtQ0.s 			page 63


 2011 06c0 76000000 		.4byte	0x76
 2012 06c4 61040000 		.4byte	.LLST30
 2013 06c8 0F       		.uleb128 0xf
 2014 06c9 76040000 		.4byte	.LASF45
 2015 06cd 01       		.byte	0x1
 2016 06ce 7604     		.2byte	0x476
 2017 06d0 6B000000 		.4byte	0x6b
 2018 06d4 A1040000 		.4byte	.LLST31
 2019 06d8 11       		.uleb128 0x11
 2020 06d9 26000000 		.4byte	.LVL115
 2021 06dd 56050000 		.4byte	0x556
 2022 06e1 FB060000 		.4byte	0x6fb
 2023 06e5 12       		.uleb128 0x12
 2024 06e6 01       		.uleb128 0x1
 2025 06e7 51       		.byte	0x51
 2026 06e8 01       		.uleb128 0x1
 2027 06e9 31       		.byte	0x31
 2028 06ea 12       		.uleb128 0x12
 2029 06eb 01       		.uleb128 0x1
 2030 06ec 50       		.byte	0x50
 2031 06ed 0C       		.uleb128 0xc
 2032 06ee 74       		.byte	0x74
 2033 06ef 00       		.sleb128 0
 2034 06f0 31       		.byte	0x31
 2035 06f1 24       		.byte	0x24
 2036 06f2 03       		.byte	0x3
 2037 06f3 00000000 		.4byte	.LANCHOR2
 2038 06f7 22       		.byte	0x22
 2039 06f8 94       		.byte	0x94
 2040 06f9 02       		.byte	0x2
 2041 06fa 00       		.byte	0
 2042 06fb 13       		.uleb128 0x13
 2043 06fc 3C000000 		.4byte	.LVL119
 2044 0700 F1050000 		.4byte	0x5f1
 2045 0704 00       		.byte	0
 2046 0705 19       		.uleb128 0x19
 2047 0706 31030000 		.4byte	.LASF46
 2048 070a 01       		.byte	0x1
 2049 070b 2901     		.2byte	0x129
 2050 070d 00000000 		.4byte	.LFB0
 2051 0711 80000000 		.4byte	.LFE0-.LFB0
 2052 0715 01       		.uleb128 0x1
 2053 0716 9C       		.byte	0x9c
 2054 0717 A6070000 		.4byte	0x7a6
 2055 071b 13       		.uleb128 0x13
 2056 071c 06000000 		.4byte	.LVL121
 2057 0720 A4060000 		.4byte	0x6a4
 2058 0724 11       		.uleb128 0x11
 2059 0725 2C000000 		.4byte	.LVL122
 2060 0729 9A040000 		.4byte	0x49a
 2061 072d 38070000 		.4byte	0x738
 2062 0731 12       		.uleb128 0x12
 2063 0732 01       		.uleb128 0x1
 2064 0733 50       		.byte	0x50
 2065 0734 02       		.uleb128 0x2
 2066 0735 08       		.byte	0x8
 2067 0736 3F       		.byte	0x3f
ARM GAS  C:\Users\hari\AppData\Local\Temp\ccc0gtQ0.s 			page 64


 2068 0737 00       		.byte	0
 2069 0738 11       		.uleb128 0x11
 2070 0739 3E000000 		.4byte	.LVL123
 2071 073d 0E010000 		.4byte	0x10e
 2072 0741 51070000 		.4byte	0x751
 2073 0745 12       		.uleb128 0x12
 2074 0746 01       		.uleb128 0x1
 2075 0747 51       		.byte	0x51
 2076 0748 02       		.uleb128 0x2
 2077 0749 09       		.byte	0x9
 2078 074a F9       		.byte	0xf9
 2079 074b 12       		.uleb128 0x12
 2080 074c 01       		.uleb128 0x1
 2081 074d 50       		.byte	0x50
 2082 074e 01       		.uleb128 0x1
 2083 074f 34       		.byte	0x34
 2084 0750 00       		.byte	0
 2085 0751 11       		.uleb128 0x11
 2086 0752 4A000000 		.4byte	.LVL124
 2087 0756 DE090000 		.4byte	0x9de
 2088 075a 64070000 		.4byte	0x764
 2089 075e 12       		.uleb128 0x12
 2090 075f 01       		.uleb128 0x1
 2091 0760 50       		.byte	0x50
 2092 0761 01       		.uleb128 0x1
 2093 0762 30       		.byte	0x30
 2094 0763 00       		.byte	0
 2095 0764 11       		.uleb128 0x11
 2096 0765 52000000 		.4byte	.LVL125
 2097 0769 F8090000 		.4byte	0x9f8
 2098 076d 7C070000 		.4byte	0x77c
 2099 0771 12       		.uleb128 0x12
 2100 0772 01       		.uleb128 0x1
 2101 0773 51       		.byte	0x51
 2102 0774 01       		.uleb128 0x1
 2103 0775 37       		.byte	0x37
 2104 0776 12       		.uleb128 0x12
 2105 0777 01       		.uleb128 0x1
 2106 0778 50       		.byte	0x50
 2107 0779 01       		.uleb128 0x1
 2108 077a 30       		.byte	0x30
 2109 077b 00       		.byte	0
 2110 077c 11       		.uleb128 0x11
 2111 077d 5E000000 		.4byte	.LVL126
 2112 0781 DE090000 		.4byte	0x9de
 2113 0785 90070000 		.4byte	0x790
 2114 0789 12       		.uleb128 0x12
 2115 078a 01       		.uleb128 0x1
 2116 078b 50       		.byte	0x50
 2117 078c 02       		.uleb128 0x2
 2118 078d 74       		.byte	0x74
 2119 078e 00       		.sleb128 0
 2120 078f 00       		.byte	0
 2121 0790 14       		.uleb128 0x14
 2122 0791 66000000 		.4byte	.LVL127
 2123 0795 F8090000 		.4byte	0x9f8
 2124 0799 12       		.uleb128 0x12
ARM GAS  C:\Users\hari\AppData\Local\Temp\ccc0gtQ0.s 			page 65


 2125 079a 01       		.uleb128 0x1
 2126 079b 51       		.byte	0x51
 2127 079c 01       		.uleb128 0x1
 2128 079d 37       		.byte	0x37
 2129 079e 12       		.uleb128 0x12
 2130 079f 01       		.uleb128 0x1
 2131 07a0 50       		.byte	0x50
 2132 07a1 02       		.uleb128 0x2
 2133 07a2 74       		.byte	0x74
 2134 07a3 00       		.sleb128 0
 2135 07a4 00       		.byte	0
 2136 07a5 00       		.byte	0
 2137 07a6 18       		.uleb128 0x18
 2138 07a7 B8010000 		.4byte	.LASF47
 2139 07ab 01       		.byte	0x1
 2140 07ac 2F03     		.2byte	0x32f
 2141 07ae 6B000000 		.4byte	0x6b
 2142 07b2 00000000 		.4byte	.LFB4
 2143 07b6 20000000 		.4byte	.LFE4-.LFB4
 2144 07ba 01       		.uleb128 0x1
 2145 07bb 9C       		.byte	0x9c
 2146 07bc E1070000 		.4byte	0x7e1
 2147 07c0 1D       		.uleb128 0x1d
 2148 07c1 B2040000 		.4byte	.LASF24
 2149 07c5 01       		.byte	0x1
 2150 07c6 3103     		.2byte	0x331
 2151 07c8 6B000000 		.4byte	0x6b
 2152 07cc 01       		.uleb128 0x1
 2153 07cd 50       		.byte	0x50
 2154 07ce 13       		.uleb128 0x13
 2155 07cf 16000000 		.4byte	.LVL128
 2156 07d3 05070000 		.4byte	0x705
 2157 07d7 13       		.uleb128 0x13
 2158 07d8 1A000000 		.4byte	.LVL129
 2159 07dc 85030000 		.4byte	0x385
 2160 07e0 00       		.byte	0
 2161 07e1 1D       		.uleb128 0x1d
 2162 07e2 5F040000 		.4byte	.LASF48
 2163 07e6 01       		.byte	0x1
 2164 07e7 0401     		.2byte	0x104
 2165 07e9 6B000000 		.4byte	0x6b
 2166 07ed 05       		.uleb128 0x5
 2167 07ee 03       		.byte	0x3
 2168 07ef 00000000 		.4byte	LCD_Seg_1_frameChannel
 2169 07f3 15       		.uleb128 0x15
 2170 07f4 6B000000 		.4byte	0x6b
 2171 07f8 03080000 		.4byte	0x803
 2172 07fc 16       		.uleb128 0x16
 2173 07fd E2000000 		.4byte	0xe2
 2174 0801 4F       		.byte	0x4f
 2175 0802 00       		.byte	0
 2176 0803 1D       		.uleb128 0x1d
 2177 0804 F0000000 		.4byte	.LASF49
 2178 0808 01       		.byte	0x1
 2179 0809 0701     		.2byte	0x107
 2180 080b F3070000 		.4byte	0x7f3
 2181 080f 05       		.uleb128 0x5
ARM GAS  C:\Users\hari\AppData\Local\Temp\ccc0gtQ0.s 			page 66


 2182 0810 03       		.byte	0x3
 2183 0811 08000000 		.4byte	LCD_Seg_1_buffer
 2184 0815 15       		.uleb128 0x15
 2185 0816 6B000000 		.4byte	0x6b
 2186 081a 25080000 		.4byte	0x825
 2187 081e 16       		.uleb128 0x16
 2188 081f E2000000 		.4byte	0xe2
 2189 0823 04       		.byte	0x4
 2190 0824 00       		.byte	0
 2191 0825 1D       		.uleb128 0x1d
 2192 0826 40030000 		.4byte	.LASF50
 2193 082a 01       		.byte	0x1
 2194 082b 0A01     		.2byte	0x10a
 2195 082d 15080000 		.4byte	0x815
 2196 0831 05       		.uleb128 0x5
 2197 0832 03       		.byte	0x3
 2198 0833 5C000000 		.4byte	LCD_Seg_1_lcdTd
 2199 0837 1D       		.uleb128 0x1d
 2200 0838 BC030000 		.4byte	.LASF51
 2201 083c 01       		.byte	0x1
 2202 083d 0D01     		.2byte	0x10d
 2203 083f 6B000000 		.4byte	0x6b
 2204 0843 05       		.uleb128 0x5
 2205 0844 03       		.byte	0x3
 2206 0845 58000000 		.4byte	LCD_Seg_1_lcdChannel
 2207 0849 15       		.uleb128 0x15
 2208 084a 76000000 		.4byte	0x76
 2209 084e 59080000 		.4byte	0x859
 2210 0852 16       		.uleb128 0x16
 2211 0853 E2000000 		.4byte	0xe2
 2212 0857 04       		.byte	0x4
 2213 0858 00       		.byte	0
 2214 0859 1D       		.uleb128 0x1d
 2215 085a A0040000 		.4byte	.LASF52
 2216 085e 01       		.byte	0x1
 2217 085f 1101     		.2byte	0x111
 2218 0861 6B080000 		.4byte	0x86b
 2219 0865 05       		.uleb128 0x5
 2220 0866 03       		.byte	0x3
 2221 0867 00000000 		.4byte	LCD_Seg_1_commons
 2222 086b 17       		.uleb128 0x17
 2223 086c 49080000 		.4byte	0x849
 2224 0870 15       		.uleb128 0x15
 2225 0871 6B000000 		.4byte	0x6b
 2226 0875 80080000 		.4byte	0x880
 2227 0879 16       		.uleb128 0x16
 2228 087a E2000000 		.4byte	0xe2
 2229 087e 01       		.byte	0x1
 2230 087f 00       		.byte	0
 2231 0880 1D       		.uleb128 0x1d
 2232 0881 93050000 		.4byte	.LASF53
 2233 0885 01       		.byte	0x1
 2234 0886 1301     		.2byte	0x113
 2235 0888 70080000 		.4byte	0x870
 2236 088c 05       		.uleb128 0x5
 2237 088d 03       		.byte	0x3
 2238 088e 00000000 		.4byte	LCD_Seg_1_frameTx
ARM GAS  C:\Users\hari\AppData\Local\Temp\ccc0gtQ0.s 			page 67


 2239 0892 1D       		.uleb128 0x1d
 2240 0893 64050000 		.4byte	.LASF54
 2241 0897 01       		.byte	0x1
 2242 0898 1401     		.2byte	0x114
 2243 089a 70080000 		.4byte	0x870
 2244 089e 05       		.uleb128 0x5
 2245 089f 03       		.byte	0x3
 2246 08a0 04000000 		.4byte	LCD_Seg_1_frameTd
 2247 08a4 1E       		.uleb128 0x1e
 2248 08a5 FE010000 		.4byte	.LASF77
 2249 08a9 01       		.byte	0x1
 2250 08aa 0101     		.2byte	0x101
 2251 08ac 6B000000 		.4byte	0x6b
 2252 08b0 05       		.uleb128 0x5
 2253 08b1 03       		.byte	0x3
 2254 08b2 00000000 		.4byte	LCD_Seg_1_initVar
 2255 08b6 1F       		.uleb128 0x1f
 2256 08b7 D3020000 		.4byte	.LASF55
 2257 08bb 04       		.byte	0x4
 2258 08bc 1E       		.byte	0x1e
 2259 08bd 6B000000 		.4byte	0x6b
 2260 08c1 DA080000 		.4byte	0x8da
 2261 08c5 20       		.uleb128 0x20
 2262 08c6 6B000000 		.4byte	0x6b
 2263 08ca 20       		.uleb128 0x20
 2264 08cb 6B000000 		.4byte	0x6b
 2265 08cf 20       		.uleb128 0x20
 2266 08d0 76000000 		.4byte	0x76
 2267 08d4 20       		.uleb128 0x20
 2268 08d5 76000000 		.4byte	0x76
 2269 08d9 00       		.byte	0
 2270 08da 21       		.uleb128 0x21
 2271 08db 37000000 		.4byte	.LASF64
 2272 08df 05       		.byte	0x5
 2273 08e0 39       		.byte	0x39
 2274 08e1 6B000000 		.4byte	0x6b
 2275 08e5 1F       		.uleb128 0x1f
 2276 08e6 A5000000 		.4byte	.LASF56
 2277 08ea 05       		.byte	0x5
 2278 08eb 3C       		.byte	0x3c
 2279 08ec A1000000 		.4byte	0xa1
 2280 08f0 09090000 		.4byte	0x909
 2281 08f4 20       		.uleb128 0x20
 2282 08f5 6B000000 		.4byte	0x6b
 2283 08f9 20       		.uleb128 0x20
 2284 08fa 76000000 		.4byte	0x76
 2285 08fe 20       		.uleb128 0x20
 2286 08ff 6B000000 		.4byte	0x6b
 2287 0903 20       		.uleb128 0x20
 2288 0904 6B000000 		.4byte	0x6b
 2289 0908 00       		.byte	0
 2290 0909 1F       		.uleb128 0x1f
 2291 090a 1F030000 		.4byte	.LASF57
 2292 090e 05       		.byte	0x5
 2293 090f 40       		.byte	0x40
 2294 0910 A1000000 		.4byte	0xa1
 2295 0914 28090000 		.4byte	0x928
ARM GAS  C:\Users\hari\AppData\Local\Temp\ccc0gtQ0.s 			page 68


 2296 0918 20       		.uleb128 0x20
 2297 0919 6B000000 		.4byte	0x6b
 2298 091d 20       		.uleb128 0x20
 2299 091e 76000000 		.4byte	0x76
 2300 0922 20       		.uleb128 0x20
 2301 0923 76000000 		.4byte	0x76
 2302 0927 00       		.byte	0
 2303 0928 1F       		.uleb128 0x1f
 2304 0929 76050000 		.4byte	.LASF58
 2305 092d 05       		.byte	0x5
 2306 092e 30       		.byte	0x30
 2307 092f A1000000 		.4byte	0xa1
 2308 0933 42090000 		.4byte	0x942
 2309 0937 20       		.uleb128 0x20
 2310 0938 6B000000 		.4byte	0x6b
 2311 093c 20       		.uleb128 0x20
 2312 093d 6B000000 		.4byte	0x6b
 2313 0941 00       		.byte	0
 2314 0942 1F       		.uleb128 0x1f
 2315 0943 4F000000 		.4byte	.LASF59
 2316 0947 05       		.byte	0x5
 2317 0948 2A       		.byte	0x2a
 2318 0949 A1000000 		.4byte	0xa1
 2319 094d 5C090000 		.4byte	0x95c
 2320 0951 20       		.uleb128 0x20
 2321 0952 6B000000 		.4byte	0x6b
 2322 0956 20       		.uleb128 0x20
 2323 0957 6B000000 		.4byte	0x6b
 2324 095b 00       		.byte	0
 2325 095c 1F       		.uleb128 0x1f
 2326 095d 80040000 		.4byte	.LASF60
 2327 0961 06       		.byte	0x6
 2328 0962 1E       		.byte	0x1e
 2329 0963 6B000000 		.4byte	0x6b
 2330 0967 80090000 		.4byte	0x980
 2331 096b 20       		.uleb128 0x20
 2332 096c 6B000000 		.4byte	0x6b
 2333 0970 20       		.uleb128 0x20
 2334 0971 6B000000 		.4byte	0x6b
 2335 0975 20       		.uleb128 0x20
 2336 0976 76000000 		.4byte	0x76
 2337 097a 20       		.uleb128 0x20
 2338 097b 76000000 		.4byte	0x76
 2339 097f 00       		.byte	0
 2340 0980 22       		.uleb128 0x22
 2341 0981 47050000 		.4byte	.LASF62
 2342 0985 06       		.byte	0x6
 2343 0986 1F       		.byte	0x1f
 2344 0987 1F       		.uleb128 0x1f
 2345 0988 A5050000 		.4byte	.LASF61
 2346 098c 05       		.byte	0x5
 2347 098d 29       		.byte	0x29
 2348 098e A1000000 		.4byte	0xa1
 2349 0992 9C090000 		.4byte	0x99c
 2350 0996 20       		.uleb128 0x20
 2351 0997 6B000000 		.4byte	0x6b
 2352 099b 00       		.byte	0
ARM GAS  C:\Users\hari\AppData\Local\Temp\ccc0gtQ0.s 			page 69


 2353 099c 22       		.uleb128 0x22
 2354 099d 86000000 		.4byte	.LASF63
 2355 09a1 04       		.byte	0x4
 2356 09a2 1F       		.byte	0x1f
 2357 09a3 23       		.uleb128 0x23
 2358 09a4 A1010000 		.4byte	.LASF66
 2359 09a8 05       		.byte	0x5
 2360 09a9 3A       		.byte	0x3a
 2361 09aa B4090000 		.4byte	0x9b4
 2362 09ae 20       		.uleb128 0x20
 2363 09af 6B000000 		.4byte	0x6b
 2364 09b3 00       		.byte	0
 2365 09b4 21       		.uleb128 0x21
 2366 09b5 1B020000 		.4byte	.LASF65
 2367 09b9 07       		.byte	0x7
 2368 09ba 7E       		.byte	0x7e
 2369 09bb 6B000000 		.4byte	0x6b
 2370 09bf 23       		.uleb128 0x23
 2371 09c0 07000000 		.4byte	.LASF67
 2372 09c4 07       		.byte	0x7
 2373 09c5 7F       		.byte	0x7f
 2374 09c6 D0090000 		.4byte	0x9d0
 2375 09ca 20       		.uleb128 0x20
 2376 09cb 6B000000 		.4byte	0x6b
 2377 09cf 00       		.byte	0
 2378 09d0 22       		.uleb128 0x22
 2379 09d1 90020000 		.4byte	.LASF68
 2380 09d5 08       		.byte	0x8
 2381 09d6 27       		.byte	0x27
 2382 09d7 22       		.uleb128 0x22
 2383 09d8 6F010000 		.4byte	.LASF69
 2384 09dc 08       		.byte	0x8
 2385 09dd 28       		.byte	0x28
 2386 09de 1F       		.uleb128 0x1f
 2387 09df AA020000 		.4byte	.LASF70
 2388 09e3 07       		.byte	0x7
 2389 09e4 89       		.byte	0x89
 2390 09e5 CF000000 		.4byte	0xcf
 2391 09e9 F8090000 		.4byte	0x9f8
 2392 09ed 20       		.uleb128 0x20
 2393 09ee 6B000000 		.4byte	0x6b
 2394 09f2 20       		.uleb128 0x20
 2395 09f3 CF000000 		.4byte	0xcf
 2396 09f7 00       		.byte	0
 2397 09f8 24       		.uleb128 0x24
 2398 09f9 50030000 		.4byte	.LASF78
 2399 09fd 07       		.byte	0x7
 2400 09fe 8C       		.byte	0x8c
 2401 09ff 20       		.uleb128 0x20
 2402 0a00 6B000000 		.4byte	0x6b
 2403 0a04 20       		.uleb128 0x20
 2404 0a05 6B000000 		.4byte	0x6b
 2405 0a09 00       		.byte	0
 2406 0a0a 00       		.byte	0
 2407              		.section	.debug_abbrev,"",%progbits
 2408              	.Ldebug_abbrev0:
 2409 0000 01       		.uleb128 0x1
ARM GAS  C:\Users\hari\AppData\Local\Temp\ccc0gtQ0.s 			page 70


 2410 0001 11       		.uleb128 0x11
 2411 0002 01       		.byte	0x1
 2412 0003 25       		.uleb128 0x25
 2413 0004 0E       		.uleb128 0xe
 2414 0005 13       		.uleb128 0x13
 2415 0006 0B       		.uleb128 0xb
 2416 0007 03       		.uleb128 0x3
 2417 0008 0E       		.uleb128 0xe
 2418 0009 1B       		.uleb128 0x1b
 2419 000a 0E       		.uleb128 0xe
 2420 000b 55       		.uleb128 0x55
 2421 000c 17       		.uleb128 0x17
 2422 000d 11       		.uleb128 0x11
 2423 000e 01       		.uleb128 0x1
 2424 000f 10       		.uleb128 0x10
 2425 0010 17       		.uleb128 0x17
 2426 0011 00       		.byte	0
 2427 0012 00       		.byte	0
 2428 0013 02       		.uleb128 0x2
 2429 0014 24       		.uleb128 0x24
 2430 0015 00       		.byte	0
 2431 0016 0B       		.uleb128 0xb
 2432 0017 0B       		.uleb128 0xb
 2433 0018 3E       		.uleb128 0x3e
 2434 0019 0B       		.uleb128 0xb
 2435 001a 03       		.uleb128 0x3
 2436 001b 0E       		.uleb128 0xe
 2437 001c 00       		.byte	0
 2438 001d 00       		.byte	0
 2439 001e 03       		.uleb128 0x3
 2440 001f 24       		.uleb128 0x24
 2441 0020 00       		.byte	0
 2442 0021 0B       		.uleb128 0xb
 2443 0022 0B       		.uleb128 0xb
 2444 0023 3E       		.uleb128 0x3e
 2445 0024 0B       		.uleb128 0xb
 2446 0025 03       		.uleb128 0x3
 2447 0026 08       		.uleb128 0x8
 2448 0027 00       		.byte	0
 2449 0028 00       		.byte	0
 2450 0029 04       		.uleb128 0x4
 2451 002a 16       		.uleb128 0x16
 2452 002b 00       		.byte	0
 2453 002c 03       		.uleb128 0x3
 2454 002d 0E       		.uleb128 0xe
 2455 002e 3A       		.uleb128 0x3a
 2456 002f 0B       		.uleb128 0xb
 2457 0030 3B       		.uleb128 0x3b
 2458 0031 0B       		.uleb128 0xb
 2459 0032 49       		.uleb128 0x49
 2460 0033 13       		.uleb128 0x13
 2461 0034 00       		.byte	0
 2462 0035 00       		.byte	0
 2463 0036 05       		.uleb128 0x5
 2464 0037 16       		.uleb128 0x16
 2465 0038 00       		.byte	0
 2466 0039 03       		.uleb128 0x3
ARM GAS  C:\Users\hari\AppData\Local\Temp\ccc0gtQ0.s 			page 71


 2467 003a 0E       		.uleb128 0xe
 2468 003b 3A       		.uleb128 0x3a
 2469 003c 0B       		.uleb128 0xb
 2470 003d 3B       		.uleb128 0x3b
 2471 003e 05       		.uleb128 0x5
 2472 003f 49       		.uleb128 0x49
 2473 0040 13       		.uleb128 0x13
 2474 0041 00       		.byte	0
 2475 0042 00       		.byte	0
 2476 0043 06       		.uleb128 0x6
 2477 0044 35       		.uleb128 0x35
 2478 0045 00       		.byte	0
 2479 0046 49       		.uleb128 0x49
 2480 0047 13       		.uleb128 0x13
 2481 0048 00       		.byte	0
 2482 0049 00       		.byte	0
 2483 004a 07       		.uleb128 0x7
 2484 004b 0F       		.uleb128 0xf
 2485 004c 00       		.byte	0
 2486 004d 0B       		.uleb128 0xb
 2487 004e 0B       		.uleb128 0xb
 2488 004f 49       		.uleb128 0x49
 2489 0050 13       		.uleb128 0x13
 2490 0051 00       		.byte	0
 2491 0052 00       		.byte	0
 2492 0053 08       		.uleb128 0x8
 2493 0054 15       		.uleb128 0x15
 2494 0055 00       		.byte	0
 2495 0056 27       		.uleb128 0x27
 2496 0057 19       		.uleb128 0x19
 2497 0058 00       		.byte	0
 2498 0059 00       		.byte	0
 2499 005a 09       		.uleb128 0x9
 2500 005b 13       		.uleb128 0x13
 2501 005c 01       		.byte	0x1
 2502 005d 03       		.uleb128 0x3
 2503 005e 0E       		.uleb128 0xe
 2504 005f 0B       		.uleb128 0xb
 2505 0060 0B       		.uleb128 0xb
 2506 0061 3A       		.uleb128 0x3a
 2507 0062 0B       		.uleb128 0xb
 2508 0063 3B       		.uleb128 0x3b
 2509 0064 0B       		.uleb128 0xb
 2510 0065 01       		.uleb128 0x1
 2511 0066 13       		.uleb128 0x13
 2512 0067 00       		.byte	0
 2513 0068 00       		.byte	0
 2514 0069 0A       		.uleb128 0xa
 2515 006a 0D       		.uleb128 0xd
 2516 006b 00       		.byte	0
 2517 006c 03       		.uleb128 0x3
 2518 006d 0E       		.uleb128 0xe
 2519 006e 3A       		.uleb128 0x3a
 2520 006f 0B       		.uleb128 0xb
 2521 0070 3B       		.uleb128 0x3b
 2522 0071 0B       		.uleb128 0xb
 2523 0072 49       		.uleb128 0x49
ARM GAS  C:\Users\hari\AppData\Local\Temp\ccc0gtQ0.s 			page 72


 2524 0073 13       		.uleb128 0x13
 2525 0074 38       		.uleb128 0x38
 2526 0075 0B       		.uleb128 0xb
 2527 0076 00       		.byte	0
 2528 0077 00       		.byte	0
 2529 0078 0B       		.uleb128 0xb
 2530 0079 2E       		.uleb128 0x2e
 2531 007a 01       		.byte	0x1
 2532 007b 03       		.uleb128 0x3
 2533 007c 0E       		.uleb128 0xe
 2534 007d 3A       		.uleb128 0x3a
 2535 007e 0B       		.uleb128 0xb
 2536 007f 3B       		.uleb128 0x3b
 2537 0080 05       		.uleb128 0x5
 2538 0081 27       		.uleb128 0x27
 2539 0082 19       		.uleb128 0x19
 2540 0083 11       		.uleb128 0x11
 2541 0084 01       		.uleb128 0x1
 2542 0085 12       		.uleb128 0x12
 2543 0086 06       		.uleb128 0x6
 2544 0087 40       		.uleb128 0x40
 2545 0088 18       		.uleb128 0x18
 2546 0089 9742     		.uleb128 0x2117
 2547 008b 19       		.uleb128 0x19
 2548 008c 01       		.uleb128 0x1
 2549 008d 13       		.uleb128 0x13
 2550 008e 00       		.byte	0
 2551 008f 00       		.byte	0
 2552 0090 0C       		.uleb128 0xc
 2553 0091 05       		.uleb128 0x5
 2554 0092 00       		.byte	0
 2555 0093 03       		.uleb128 0x3
 2556 0094 0E       		.uleb128 0xe
 2557 0095 3A       		.uleb128 0x3a
 2558 0096 0B       		.uleb128 0xb
 2559 0097 3B       		.uleb128 0x3b
 2560 0098 05       		.uleb128 0x5
 2561 0099 49       		.uleb128 0x49
 2562 009a 13       		.uleb128 0x13
 2563 009b 02       		.uleb128 0x2
 2564 009c 18       		.uleb128 0x18
 2565 009d 00       		.byte	0
 2566 009e 00       		.byte	0
 2567 009f 0D       		.uleb128 0xd
 2568 00a0 34       		.uleb128 0x34
 2569 00a1 00       		.byte	0
 2570 00a2 03       		.uleb128 0x3
 2571 00a3 08       		.uleb128 0x8
 2572 00a4 3A       		.uleb128 0x3a
 2573 00a5 0B       		.uleb128 0xb
 2574 00a6 3B       		.uleb128 0x3b
 2575 00a7 05       		.uleb128 0x5
 2576 00a8 49       		.uleb128 0x49
 2577 00a9 13       		.uleb128 0x13
 2578 00aa 02       		.uleb128 0x2
 2579 00ab 17       		.uleb128 0x17
 2580 00ac 00       		.byte	0
ARM GAS  C:\Users\hari\AppData\Local\Temp\ccc0gtQ0.s 			page 73


 2581 00ad 00       		.byte	0
 2582 00ae 0E       		.uleb128 0xe
 2583 00af 2E       		.uleb128 0x2e
 2584 00b0 01       		.byte	0x1
 2585 00b1 03       		.uleb128 0x3
 2586 00b2 0E       		.uleb128 0xe
 2587 00b3 3A       		.uleb128 0x3a
 2588 00b4 0B       		.uleb128 0xb
 2589 00b5 3B       		.uleb128 0x3b
 2590 00b6 05       		.uleb128 0x5
 2591 00b7 27       		.uleb128 0x27
 2592 00b8 19       		.uleb128 0x19
 2593 00b9 49       		.uleb128 0x49
 2594 00ba 13       		.uleb128 0x13
 2595 00bb 11       		.uleb128 0x11
 2596 00bc 01       		.uleb128 0x1
 2597 00bd 12       		.uleb128 0x12
 2598 00be 06       		.uleb128 0x6
 2599 00bf 40       		.uleb128 0x40
 2600 00c0 18       		.uleb128 0x18
 2601 00c1 9742     		.uleb128 0x2117
 2602 00c3 19       		.uleb128 0x19
 2603 00c4 01       		.uleb128 0x1
 2604 00c5 13       		.uleb128 0x13
 2605 00c6 00       		.byte	0
 2606 00c7 00       		.byte	0
 2607 00c8 0F       		.uleb128 0xf
 2608 00c9 34       		.uleb128 0x34
 2609 00ca 00       		.byte	0
 2610 00cb 03       		.uleb128 0x3
 2611 00cc 0E       		.uleb128 0xe
 2612 00cd 3A       		.uleb128 0x3a
 2613 00ce 0B       		.uleb128 0xb
 2614 00cf 3B       		.uleb128 0x3b
 2615 00d0 05       		.uleb128 0x5
 2616 00d1 49       		.uleb128 0x49
 2617 00d2 13       		.uleb128 0x13
 2618 00d3 02       		.uleb128 0x2
 2619 00d4 17       		.uleb128 0x17
 2620 00d5 00       		.byte	0
 2621 00d6 00       		.byte	0
 2622 00d7 10       		.uleb128 0x10
 2623 00d8 34       		.uleb128 0x34
 2624 00d9 00       		.byte	0
 2625 00da 03       		.uleb128 0x3
 2626 00db 0E       		.uleb128 0xe
 2627 00dc 3A       		.uleb128 0x3a
 2628 00dd 0B       		.uleb128 0xb
 2629 00de 3B       		.uleb128 0x3b
 2630 00df 05       		.uleb128 0x5
 2631 00e0 49       		.uleb128 0x49
 2632 00e1 13       		.uleb128 0x13
 2633 00e2 1C       		.uleb128 0x1c
 2634 00e3 0A       		.uleb128 0xa
 2635 00e4 00       		.byte	0
 2636 00e5 00       		.byte	0
 2637 00e6 11       		.uleb128 0x11
ARM GAS  C:\Users\hari\AppData\Local\Temp\ccc0gtQ0.s 			page 74


 2638 00e7 898201   		.uleb128 0x4109
 2639 00ea 01       		.byte	0x1
 2640 00eb 11       		.uleb128 0x11
 2641 00ec 01       		.uleb128 0x1
 2642 00ed 31       		.uleb128 0x31
 2643 00ee 13       		.uleb128 0x13
 2644 00ef 01       		.uleb128 0x1
 2645 00f0 13       		.uleb128 0x13
 2646 00f1 00       		.byte	0
 2647 00f2 00       		.byte	0
 2648 00f3 12       		.uleb128 0x12
 2649 00f4 8A8201   		.uleb128 0x410a
 2650 00f7 00       		.byte	0
 2651 00f8 02       		.uleb128 0x2
 2652 00f9 18       		.uleb128 0x18
 2653 00fa 9142     		.uleb128 0x2111
 2654 00fc 18       		.uleb128 0x18
 2655 00fd 00       		.byte	0
 2656 00fe 00       		.byte	0
 2657 00ff 13       		.uleb128 0x13
 2658 0100 898201   		.uleb128 0x4109
 2659 0103 00       		.byte	0
 2660 0104 11       		.uleb128 0x11
 2661 0105 01       		.uleb128 0x1
 2662 0106 31       		.uleb128 0x31
 2663 0107 13       		.uleb128 0x13
 2664 0108 00       		.byte	0
 2665 0109 00       		.byte	0
 2666 010a 14       		.uleb128 0x14
 2667 010b 898201   		.uleb128 0x4109
 2668 010e 01       		.byte	0x1
 2669 010f 11       		.uleb128 0x11
 2670 0110 01       		.uleb128 0x1
 2671 0111 31       		.uleb128 0x31
 2672 0112 13       		.uleb128 0x13
 2673 0113 00       		.byte	0
 2674 0114 00       		.byte	0
 2675 0115 15       		.uleb128 0x15
 2676 0116 01       		.uleb128 0x1
 2677 0117 01       		.byte	0x1
 2678 0118 49       		.uleb128 0x49
 2679 0119 13       		.uleb128 0x13
 2680 011a 01       		.uleb128 0x1
 2681 011b 13       		.uleb128 0x13
 2682 011c 00       		.byte	0
 2683 011d 00       		.byte	0
 2684 011e 16       		.uleb128 0x16
 2685 011f 21       		.uleb128 0x21
 2686 0120 00       		.byte	0
 2687 0121 49       		.uleb128 0x49
 2688 0122 13       		.uleb128 0x13
 2689 0123 2F       		.uleb128 0x2f
 2690 0124 0B       		.uleb128 0xb
 2691 0125 00       		.byte	0
 2692 0126 00       		.byte	0
 2693 0127 17       		.uleb128 0x17
 2694 0128 26       		.uleb128 0x26
ARM GAS  C:\Users\hari\AppData\Local\Temp\ccc0gtQ0.s 			page 75


 2695 0129 00       		.byte	0
 2696 012a 49       		.uleb128 0x49
 2697 012b 13       		.uleb128 0x13
 2698 012c 00       		.byte	0
 2699 012d 00       		.byte	0
 2700 012e 18       		.uleb128 0x18
 2701 012f 2E       		.uleb128 0x2e
 2702 0130 01       		.byte	0x1
 2703 0131 3F       		.uleb128 0x3f
 2704 0132 19       		.uleb128 0x19
 2705 0133 03       		.uleb128 0x3
 2706 0134 0E       		.uleb128 0xe
 2707 0135 3A       		.uleb128 0x3a
 2708 0136 0B       		.uleb128 0xb
 2709 0137 3B       		.uleb128 0x3b
 2710 0138 05       		.uleb128 0x5
 2711 0139 27       		.uleb128 0x27
 2712 013a 19       		.uleb128 0x19
 2713 013b 49       		.uleb128 0x49
 2714 013c 13       		.uleb128 0x13
 2715 013d 11       		.uleb128 0x11
 2716 013e 01       		.uleb128 0x1
 2717 013f 12       		.uleb128 0x12
 2718 0140 06       		.uleb128 0x6
 2719 0141 40       		.uleb128 0x40
 2720 0142 18       		.uleb128 0x18
 2721 0143 9742     		.uleb128 0x2117
 2722 0145 19       		.uleb128 0x19
 2723 0146 01       		.uleb128 0x1
 2724 0147 13       		.uleb128 0x13
 2725 0148 00       		.byte	0
 2726 0149 00       		.byte	0
 2727 014a 19       		.uleb128 0x19
 2728 014b 2E       		.uleb128 0x2e
 2729 014c 01       		.byte	0x1
 2730 014d 3F       		.uleb128 0x3f
 2731 014e 19       		.uleb128 0x19
 2732 014f 03       		.uleb128 0x3
 2733 0150 0E       		.uleb128 0xe
 2734 0151 3A       		.uleb128 0x3a
 2735 0152 0B       		.uleb128 0xb
 2736 0153 3B       		.uleb128 0x3b
 2737 0154 05       		.uleb128 0x5
 2738 0155 27       		.uleb128 0x27
 2739 0156 19       		.uleb128 0x19
 2740 0157 11       		.uleb128 0x11
 2741 0158 01       		.uleb128 0x1
 2742 0159 12       		.uleb128 0x12
 2743 015a 06       		.uleb128 0x6
 2744 015b 40       		.uleb128 0x40
 2745 015c 18       		.uleb128 0x18
 2746 015d 9742     		.uleb128 0x2117
 2747 015f 19       		.uleb128 0x19
 2748 0160 01       		.uleb128 0x1
 2749 0161 13       		.uleb128 0x13
 2750 0162 00       		.byte	0
 2751 0163 00       		.byte	0
ARM GAS  C:\Users\hari\AppData\Local\Temp\ccc0gtQ0.s 			page 76


 2752 0164 1A       		.uleb128 0x1a
 2753 0165 2E       		.uleb128 0x2e
 2754 0166 00       		.byte	0
 2755 0167 3F       		.uleb128 0x3f
 2756 0168 19       		.uleb128 0x19
 2757 0169 03       		.uleb128 0x3
 2758 016a 0E       		.uleb128 0xe
 2759 016b 3A       		.uleb128 0x3a
 2760 016c 0B       		.uleb128 0xb
 2761 016d 3B       		.uleb128 0x3b
 2762 016e 05       		.uleb128 0x5
 2763 016f 27       		.uleb128 0x27
 2764 0170 19       		.uleb128 0x19
 2765 0171 11       		.uleb128 0x11
 2766 0172 01       		.uleb128 0x1
 2767 0173 12       		.uleb128 0x12
 2768 0174 06       		.uleb128 0x6
 2769 0175 40       		.uleb128 0x40
 2770 0176 18       		.uleb128 0x18
 2771 0177 9742     		.uleb128 0x2117
 2772 0179 19       		.uleb128 0x19
 2773 017a 00       		.byte	0
 2774 017b 00       		.byte	0
 2775 017c 1B       		.uleb128 0x1b
 2776 017d 05       		.uleb128 0x5
 2777 017e 00       		.byte	0
 2778 017f 03       		.uleb128 0x3
 2779 0180 0E       		.uleb128 0xe
 2780 0181 3A       		.uleb128 0x3a
 2781 0182 0B       		.uleb128 0xb
 2782 0183 3B       		.uleb128 0x3b
 2783 0184 05       		.uleb128 0x5
 2784 0185 49       		.uleb128 0x49
 2785 0186 13       		.uleb128 0x13
 2786 0187 02       		.uleb128 0x2
 2787 0188 17       		.uleb128 0x17
 2788 0189 00       		.byte	0
 2789 018a 00       		.byte	0
 2790 018b 1C       		.uleb128 0x1c
 2791 018c 2E       		.uleb128 0x2e
 2792 018d 00       		.byte	0
 2793 018e 3F       		.uleb128 0x3f
 2794 018f 19       		.uleb128 0x19
 2795 0190 03       		.uleb128 0x3
 2796 0191 0E       		.uleb128 0xe
 2797 0192 3A       		.uleb128 0x3a
 2798 0193 0B       		.uleb128 0xb
 2799 0194 3B       		.uleb128 0x3b
 2800 0195 05       		.uleb128 0x5
 2801 0196 27       		.uleb128 0x27
 2802 0197 19       		.uleb128 0x19
 2803 0198 49       		.uleb128 0x49
 2804 0199 13       		.uleb128 0x13
 2805 019a 11       		.uleb128 0x11
 2806 019b 01       		.uleb128 0x1
 2807 019c 12       		.uleb128 0x12
 2808 019d 06       		.uleb128 0x6
ARM GAS  C:\Users\hari\AppData\Local\Temp\ccc0gtQ0.s 			page 77


 2809 019e 40       		.uleb128 0x40
 2810 019f 18       		.uleb128 0x18
 2811 01a0 9742     		.uleb128 0x2117
 2812 01a2 19       		.uleb128 0x19
 2813 01a3 00       		.byte	0
 2814 01a4 00       		.byte	0
 2815 01a5 1D       		.uleb128 0x1d
 2816 01a6 34       		.uleb128 0x34
 2817 01a7 00       		.byte	0
 2818 01a8 03       		.uleb128 0x3
 2819 01a9 0E       		.uleb128 0xe
 2820 01aa 3A       		.uleb128 0x3a
 2821 01ab 0B       		.uleb128 0xb
 2822 01ac 3B       		.uleb128 0x3b
 2823 01ad 05       		.uleb128 0x5
 2824 01ae 49       		.uleb128 0x49
 2825 01af 13       		.uleb128 0x13
 2826 01b0 02       		.uleb128 0x2
 2827 01b1 18       		.uleb128 0x18
 2828 01b2 00       		.byte	0
 2829 01b3 00       		.byte	0
 2830 01b4 1E       		.uleb128 0x1e
 2831 01b5 34       		.uleb128 0x34
 2832 01b6 00       		.byte	0
 2833 01b7 03       		.uleb128 0x3
 2834 01b8 0E       		.uleb128 0xe
 2835 01b9 3A       		.uleb128 0x3a
 2836 01ba 0B       		.uleb128 0xb
 2837 01bb 3B       		.uleb128 0x3b
 2838 01bc 05       		.uleb128 0x5
 2839 01bd 49       		.uleb128 0x49
 2840 01be 13       		.uleb128 0x13
 2841 01bf 3F       		.uleb128 0x3f
 2842 01c0 19       		.uleb128 0x19
 2843 01c1 02       		.uleb128 0x2
 2844 01c2 18       		.uleb128 0x18
 2845 01c3 00       		.byte	0
 2846 01c4 00       		.byte	0
 2847 01c5 1F       		.uleb128 0x1f
 2848 01c6 2E       		.uleb128 0x2e
 2849 01c7 01       		.byte	0x1
 2850 01c8 3F       		.uleb128 0x3f
 2851 01c9 19       		.uleb128 0x19
 2852 01ca 03       		.uleb128 0x3
 2853 01cb 0E       		.uleb128 0xe
 2854 01cc 3A       		.uleb128 0x3a
 2855 01cd 0B       		.uleb128 0xb
 2856 01ce 3B       		.uleb128 0x3b
 2857 01cf 0B       		.uleb128 0xb
 2858 01d0 27       		.uleb128 0x27
 2859 01d1 19       		.uleb128 0x19
 2860 01d2 49       		.uleb128 0x49
 2861 01d3 13       		.uleb128 0x13
 2862 01d4 3C       		.uleb128 0x3c
 2863 01d5 19       		.uleb128 0x19
 2864 01d6 01       		.uleb128 0x1
 2865 01d7 13       		.uleb128 0x13
ARM GAS  C:\Users\hari\AppData\Local\Temp\ccc0gtQ0.s 			page 78


 2866 01d8 00       		.byte	0
 2867 01d9 00       		.byte	0
 2868 01da 20       		.uleb128 0x20
 2869 01db 05       		.uleb128 0x5
 2870 01dc 00       		.byte	0
 2871 01dd 49       		.uleb128 0x49
 2872 01de 13       		.uleb128 0x13
 2873 01df 00       		.byte	0
 2874 01e0 00       		.byte	0
 2875 01e1 21       		.uleb128 0x21
 2876 01e2 2E       		.uleb128 0x2e
 2877 01e3 00       		.byte	0
 2878 01e4 3F       		.uleb128 0x3f
 2879 01e5 19       		.uleb128 0x19
 2880 01e6 03       		.uleb128 0x3
 2881 01e7 0E       		.uleb128 0xe
 2882 01e8 3A       		.uleb128 0x3a
 2883 01e9 0B       		.uleb128 0xb
 2884 01ea 3B       		.uleb128 0x3b
 2885 01eb 0B       		.uleb128 0xb
 2886 01ec 27       		.uleb128 0x27
 2887 01ed 19       		.uleb128 0x19
 2888 01ee 49       		.uleb128 0x49
 2889 01ef 13       		.uleb128 0x13
 2890 01f0 3C       		.uleb128 0x3c
 2891 01f1 19       		.uleb128 0x19
 2892 01f2 00       		.byte	0
 2893 01f3 00       		.byte	0
 2894 01f4 22       		.uleb128 0x22
 2895 01f5 2E       		.uleb128 0x2e
 2896 01f6 00       		.byte	0
 2897 01f7 3F       		.uleb128 0x3f
 2898 01f8 19       		.uleb128 0x19
 2899 01f9 03       		.uleb128 0x3
 2900 01fa 0E       		.uleb128 0xe
 2901 01fb 3A       		.uleb128 0x3a
 2902 01fc 0B       		.uleb128 0xb
 2903 01fd 3B       		.uleb128 0x3b
 2904 01fe 0B       		.uleb128 0xb
 2905 01ff 27       		.uleb128 0x27
 2906 0200 19       		.uleb128 0x19
 2907 0201 3C       		.uleb128 0x3c
 2908 0202 19       		.uleb128 0x19
 2909 0203 00       		.byte	0
 2910 0204 00       		.byte	0
 2911 0205 23       		.uleb128 0x23
 2912 0206 2E       		.uleb128 0x2e
 2913 0207 01       		.byte	0x1
 2914 0208 3F       		.uleb128 0x3f
 2915 0209 19       		.uleb128 0x19
 2916 020a 03       		.uleb128 0x3
 2917 020b 0E       		.uleb128 0xe
 2918 020c 3A       		.uleb128 0x3a
 2919 020d 0B       		.uleb128 0xb
 2920 020e 3B       		.uleb128 0x3b
 2921 020f 0B       		.uleb128 0xb
 2922 0210 27       		.uleb128 0x27
ARM GAS  C:\Users\hari\AppData\Local\Temp\ccc0gtQ0.s 			page 79


 2923 0211 19       		.uleb128 0x19
 2924 0212 3C       		.uleb128 0x3c
 2925 0213 19       		.uleb128 0x19
 2926 0214 01       		.uleb128 0x1
 2927 0215 13       		.uleb128 0x13
 2928 0216 00       		.byte	0
 2929 0217 00       		.byte	0
 2930 0218 24       		.uleb128 0x24
 2931 0219 2E       		.uleb128 0x2e
 2932 021a 01       		.byte	0x1
 2933 021b 3F       		.uleb128 0x3f
 2934 021c 19       		.uleb128 0x19
 2935 021d 03       		.uleb128 0x3
 2936 021e 0E       		.uleb128 0xe
 2937 021f 3A       		.uleb128 0x3a
 2938 0220 0B       		.uleb128 0xb
 2939 0221 3B       		.uleb128 0x3b
 2940 0222 0B       		.uleb128 0xb
 2941 0223 27       		.uleb128 0x27
 2942 0224 19       		.uleb128 0x19
 2943 0225 3C       		.uleb128 0x3c
 2944 0226 19       		.uleb128 0x19
 2945 0227 00       		.byte	0
 2946 0228 00       		.byte	0
 2947 0229 00       		.byte	0
 2948              		.section	.debug_loc,"",%progbits
 2949              	.Ldebug_loc0:
 2950              	.LLST0:
 2951 0000 02000000 		.4byte	.LVL1
 2952 0004 06000000 		.4byte	.LVL2
 2953 0008 0200     		.2byte	0x2
 2954 000a 30       		.byte	0x30
 2955 000b 9F       		.byte	0x9f
 2956 000c 06000000 		.4byte	.LVL2
 2957 0010 12000000 		.4byte	.LVL3
 2958 0014 0100     		.2byte	0x1
 2959 0016 53       		.byte	0x53
 2960 0017 14000000 		.4byte	.LVL4
 2961 001b 24000000 		.4byte	.LFE14
 2962 001f 0100     		.2byte	0x1
 2963 0021 53       		.byte	0x53
 2964 0022 00000000 		.4byte	0
 2965 0026 00000000 		.4byte	0
 2966              	.LLST1:
 2967 002a 02000000 		.4byte	.LVL5
 2968 002e 24000000 		.4byte	.LVL8
 2969 0032 0200     		.2byte	0x2
 2970 0034 30       		.byte	0x30
 2971 0035 9F       		.byte	0x9f
 2972 0036 24000000 		.4byte	.LVL8
 2973 003a A2000000 		.4byte	.LVL22
 2974 003e 0100     		.2byte	0x1
 2975 0040 56       		.byte	0x56
 2976 0041 A6000000 		.4byte	.LVL23
 2977 0045 32010000 		.4byte	.LVL38
 2978 0049 0100     		.2byte	0x1
 2979 004b 56       		.byte	0x56
ARM GAS  C:\Users\hari\AppData\Local\Temp\ccc0gtQ0.s 			page 80


 2980 004c 00000000 		.4byte	0
 2981 0050 00000000 		.4byte	0
 2982              	.LLST2:
 2983 0054 24000000 		.4byte	.LVL8
 2984 0058 36000000 		.4byte	.LVL11
 2985 005c 0100     		.2byte	0x1
 2986 005e 54       		.byte	0x54
 2987 005f 38000000 		.4byte	.LVL12
 2988 0063 4C000000 		.4byte	.LVL14
 2989 0067 0100     		.2byte	0x1
 2990 0069 54       		.byte	0x54
 2991 006a 00000000 		.4byte	0
 2992 006e 00000000 		.4byte	0
 2993              	.LLST3:
 2994 0072 A6000000 		.4byte	.LVL23
 2995 0076 BA000000 		.4byte	.LVL26
 2996 007a 0100     		.2byte	0x1
 2997 007c 54       		.byte	0x54
 2998 007d BC000000 		.4byte	.LVL27
 2999 0081 C2000000 		.4byte	.LVL28
 3000 0085 0100     		.2byte	0x1
 3001 0087 54       		.byte	0x54
 3002 0088 C4000000 		.4byte	.LVL29
 3003 008c 0E010000 		.4byte	.LVL33
 3004 0090 0100     		.2byte	0x1
 3005 0092 54       		.byte	0x54
 3006 0093 10010000 		.4byte	.LVL34
 3007 0097 18010000 		.4byte	.LVL35
 3008 009b 0100     		.2byte	0x1
 3009 009d 54       		.byte	0x54
 3010 009e 00000000 		.4byte	0
 3011 00a2 00000000 		.4byte	0
 3012              	.LLST4:
 3013 00a6 04000000 		.4byte	.LVL6
 3014 00aa 8A000000 		.4byte	.LVL20
 3015 00ae 0600     		.2byte	0x6
 3016 00b0 03       		.byte	0x3
 3017 00b1 00000000 		.4byte	.LANCHOR0
 3018 00b5 9F       		.byte	0x9f
 3019 00b6 8A000000 		.4byte	.LVL20
 3020 00ba 32010000 		.4byte	.LVL38
 3021 00be 0100     		.2byte	0x1
 3022 00c0 55       		.byte	0x55
 3023 00c1 32010000 		.4byte	.LVL38
 3024 00c5 3C010000 		.4byte	.LFE2
 3025 00c9 0600     		.2byte	0x6
 3026 00cb 03       		.byte	0x3
 3027 00cc 08000000 		.4byte	.LANCHOR1+8
 3028 00d0 9F       		.byte	0x9f
 3029 00d1 00000000 		.4byte	0
 3030 00d5 00000000 		.4byte	0
 3031              	.LLST5:
 3032 00d9 04000000 		.4byte	.LVL6
 3033 00dd 8A000000 		.4byte	.LVL20
 3034 00e1 0600     		.2byte	0x6
 3035 00e3 0C       		.byte	0xc
 3036 00e4 7B640040 		.4byte	0x4000647b
ARM GAS  C:\Users\hari\AppData\Local\Temp\ccc0gtQ0.s 			page 81


 3037 00e8 9F       		.byte	0x9f
 3038 00e9 8A000000 		.4byte	.LVL20
 3039 00ed 3C010000 		.4byte	.LFE2
 3040 00f1 0600     		.2byte	0x6
 3041 00f3 0C       		.byte	0xc
 3042 00f4 80500040 		.4byte	0x40005080
 3043 00f8 9F       		.byte	0x9f
 3044 00f9 00000000 		.4byte	0
 3045 00fd 00000000 		.4byte	0
 3046              	.LLST6:
 3047 0101 1A000000 		.4byte	.LVL42
 3048 0105 1E000000 		.4byte	.LVL43
 3049 0109 0200     		.2byte	0x2
 3050 010b 30       		.byte	0x30
 3051 010c 9F       		.byte	0x9f
 3052 010d 1E000000 		.4byte	.LVL43
 3053 0111 2A000000 		.4byte	.LVL45
 3054 0115 0100     		.2byte	0x1
 3055 0117 54       		.byte	0x54
 3056 0118 2C000000 		.4byte	.LVL46
 3057 011c 32000000 		.4byte	.LVL47
 3058 0120 0100     		.2byte	0x1
 3059 0122 54       		.byte	0x54
 3060 0123 34000000 		.4byte	.LVL48
 3061 0127 42000000 		.4byte	.LVL50
 3062 012b 0100     		.2byte	0x1
 3063 012d 54       		.byte	0x54
 3064 012e 44000000 		.4byte	.LVL51
 3065 0132 4A000000 		.4byte	.LVL52
 3066 0136 0100     		.2byte	0x1
 3067 0138 54       		.byte	0x54
 3068 0139 00000000 		.4byte	0
 3069 013d 00000000 		.4byte	0
 3070              	.LLST7:
 3071 0141 28000000 		.4byte	.LVL57
 3072 0145 58000000 		.4byte	.LVL60
 3073 0149 0100     		.2byte	0x1
 3074 014b 55       		.byte	0x55
 3075 014c 00000000 		.4byte	0
 3076 0150 00000000 		.4byte	0
 3077              	.LLST8:
 3078 0154 06000000 		.4byte	.LVL53
 3079 0158 1D000000 		.4byte	.LVL54-1
 3080 015c 0100     		.2byte	0x1
 3081 015e 50       		.byte	0x50
 3082 015f 00000000 		.4byte	0
 3083 0163 00000000 		.4byte	0
 3084              	.LLST9:
 3085 0167 28000000 		.4byte	.LVL62
 3086 016b 3F000000 		.4byte	.LVL63-1
 3087 016f 0100     		.2byte	0x1
 3088 0171 50       		.byte	0x50
 3089 0172 00000000 		.4byte	0
 3090 0176 00000000 		.4byte	0
 3091              	.LLST10:
 3092 017a 00000000 		.4byte	.LVL66
 3093 017e 0A000000 		.4byte	.LVL68
ARM GAS  C:\Users\hari\AppData\Local\Temp\ccc0gtQ0.s 			page 82


 3094 0182 0100     		.2byte	0x1
 3095 0184 50       		.byte	0x50
 3096 0185 0A000000 		.4byte	.LVL68
 3097 0189 0C000000 		.4byte	.LVL69
 3098 018d 0200     		.2byte	0x2
 3099 018f 73       		.byte	0x73
 3100 0190 00       		.sleb128 0
 3101 0191 0C000000 		.4byte	.LVL69
 3102 0195 0E000000 		.4byte	.LVL70
 3103 0199 0100     		.2byte	0x1
 3104 019b 50       		.byte	0x50
 3105 019c 0E000000 		.4byte	.LVL70
 3106 01a0 14000000 		.4byte	.LFE8
 3107 01a4 0400     		.2byte	0x4
 3108 01a6 F3       		.byte	0xf3
 3109 01a7 01       		.uleb128 0x1
 3110 01a8 50       		.byte	0x50
 3111 01a9 9F       		.byte	0x9f
 3112 01aa 00000000 		.4byte	0
 3113 01ae 00000000 		.4byte	0
 3114              	.LLST11:
 3115 01b2 08000000 		.4byte	.LVL67
 3116 01b6 0C000000 		.4byte	.LVL69
 3117 01ba 0200     		.2byte	0x2
 3118 01bc 30       		.byte	0x30
 3119 01bd 9F       		.byte	0x9f
 3120 01be 0E000000 		.4byte	.LVL70
 3121 01c2 14000000 		.4byte	.LFE8
 3122 01c6 0100     		.2byte	0x1
 3123 01c8 50       		.byte	0x50
 3124 01c9 00000000 		.4byte	0
 3125 01cd 00000000 		.4byte	0
 3126              	.LLST12:
 3127 01d1 00000000 		.4byte	.LVL71
 3128 01d5 10000000 		.4byte	.LVL74
 3129 01d9 0100     		.2byte	0x1
 3130 01db 50       		.byte	0x50
 3131 01dc 10000000 		.4byte	.LVL74
 3132 01e0 1E000000 		.4byte	.LVL76
 3133 01e4 0400     		.2byte	0x4
 3134 01e6 F3       		.byte	0xf3
 3135 01e7 01       		.uleb128 0x1
 3136 01e8 50       		.byte	0x50
 3137 01e9 9F       		.byte	0x9f
 3138 01ea 1E000000 		.4byte	.LVL76
 3139 01ee 20000000 		.4byte	.LVL77
 3140 01f2 0100     		.2byte	0x1
 3141 01f4 50       		.byte	0x50
 3142 01f5 20000000 		.4byte	.LVL77
 3143 01f9 28000000 		.4byte	.LFE13
 3144 01fd 0400     		.2byte	0x4
 3145 01ff F3       		.byte	0xf3
 3146 0200 01       		.uleb128 0x1
 3147 0201 50       		.byte	0x50
 3148 0202 9F       		.byte	0x9f
 3149 0203 00000000 		.4byte	0
 3150 0207 00000000 		.4byte	0
ARM GAS  C:\Users\hari\AppData\Local\Temp\ccc0gtQ0.s 			page 83


 3151              	.LLST13:
 3152 020b 1C000000 		.4byte	.LVL75
 3153 020f 1E000000 		.4byte	.LVL76
 3154 0213 0100     		.2byte	0x1
 3155 0215 50       		.byte	0x50
 3156 0216 20000000 		.4byte	.LVL77
 3157 021a 28000000 		.4byte	.LFE13
 3158 021e 0100     		.2byte	0x1
 3159 0220 50       		.byte	0x50
 3160 0221 00000000 		.4byte	0
 3161 0225 00000000 		.4byte	0
 3162              	.LLST14:
 3163 0229 08000000 		.4byte	.LVL72
 3164 022d 10000000 		.4byte	.LVL74
 3165 0231 0600     		.2byte	0x6
 3166 0233 70       		.byte	0x70
 3167 0234 00       		.sleb128 0
 3168 0235 09       		.byte	0x9
 3169 0236 F8       		.byte	0xf8
 3170 0237 24       		.byte	0x24
 3171 0238 9F       		.byte	0x9f
 3172 0239 00000000 		.4byte	0
 3173 023d 00000000 		.4byte	0
 3174              	.LLST15:
 3175 0241 08000000 		.4byte	.LVL72
 3176 0245 10000000 		.4byte	.LVL74
 3177 0249 0600     		.2byte	0x6
 3178 024b 70       		.byte	0x70
 3179 024c 00       		.sleb128 0
 3180 024d 09       		.byte	0x9
 3181 024e FC       		.byte	0xfc
 3182 024f 24       		.byte	0x24
 3183 0250 9F       		.byte	0x9f
 3184 0251 00000000 		.4byte	0
 3185 0255 00000000 		.4byte	0
 3186              	.LLST16:
 3187 0259 0C000000 		.4byte	.LVL73
 3188 025d 1E000000 		.4byte	.LVL76
 3189 0261 0100     		.2byte	0x1
 3190 0263 53       		.byte	0x53
 3191 0264 00000000 		.4byte	0
 3192 0268 00000000 		.4byte	0
 3193              	.LLST17:
 3194 026c 00000000 		.4byte	.LVL78
 3195 0270 16000000 		.4byte	.LVL79
 3196 0274 0100     		.2byte	0x1
 3197 0276 50       		.byte	0x50
 3198 0277 16000000 		.4byte	.LVL79
 3199 027b 3E000000 		.4byte	.LVL89
 3200 027f 0400     		.2byte	0x4
 3201 0281 F3       		.byte	0xf3
 3202 0282 01       		.uleb128 0x1
 3203 0283 50       		.byte	0x50
 3204 0284 9F       		.byte	0x9f
 3205 0285 3E000000 		.4byte	.LVL89
 3206 0289 40000000 		.4byte	.LVL90
 3207 028d 0100     		.2byte	0x1
ARM GAS  C:\Users\hari\AppData\Local\Temp\ccc0gtQ0.s 			page 84


 3208 028f 50       		.byte	0x50
 3209 0290 40000000 		.4byte	.LVL90
 3210 0294 48000000 		.4byte	.LFE12
 3211 0298 0400     		.2byte	0x4
 3212 029a F3       		.byte	0xf3
 3213 029b 01       		.uleb128 0x1
 3214 029c 50       		.byte	0x50
 3215 029d 9F       		.byte	0x9f
 3216 029e 00000000 		.4byte	0
 3217 02a2 00000000 		.4byte	0
 3218              	.LLST18:
 3219 02a6 00000000 		.4byte	.LVL78
 3220 02aa 19000000 		.4byte	.LVL80-1
 3221 02ae 0100     		.2byte	0x1
 3222 02b0 51       		.byte	0x51
 3223 02b1 19000000 		.4byte	.LVL80-1
 3224 02b5 1A000000 		.4byte	.LVL80
 3225 02b9 0400     		.2byte	0x4
 3226 02bb F3       		.byte	0xf3
 3227 02bc 01       		.uleb128 0x1
 3228 02bd 51       		.byte	0x51
 3229 02be 9F       		.byte	0x9f
 3230 02bf 1A000000 		.4byte	.LVL80
 3231 02c3 1C000000 		.4byte	.LVL81
 3232 02c7 0100     		.2byte	0x1
 3233 02c9 50       		.byte	0x50
 3234 02ca 1E000000 		.4byte	.LVL82
 3235 02ce 32000000 		.4byte	.LVL86
 3236 02d2 0100     		.2byte	0x1
 3237 02d4 51       		.byte	0x51
 3238 02d5 3E000000 		.4byte	.LVL89
 3239 02d9 48000000 		.4byte	.LFE12
 3240 02dd 0100     		.2byte	0x1
 3241 02df 51       		.byte	0x51
 3242 02e0 00000000 		.4byte	0
 3243 02e4 00000000 		.4byte	0
 3244              	.LLST19:
 3245 02e8 26000000 		.4byte	.LVL84
 3246 02ec 36000000 		.4byte	.LVL87
 3247 02f0 0400     		.2byte	0x4
 3248 02f2 70       		.byte	0x70
 3249 02f3 00       		.sleb128 0
 3250 02f4 20       		.byte	0x20
 3251 02f5 9F       		.byte	0x9f
 3252 02f6 36000000 		.4byte	.LVL87
 3253 02fa 3E000000 		.4byte	.LVL89
 3254 02fe 0E00     		.2byte	0xe
 3255 0300 09       		.byte	0x9
 3256 0301 FE       		.byte	0xfe
 3257 0302 72       		.byte	0x72
 3258 0303 00       		.sleb128 0
 3259 0304 14       		.byte	0x14
 3260 0305 14       		.byte	0x14
 3261 0306 24       		.byte	0x24
 3262 0307 17       		.byte	0x17
 3263 0308 1F       		.byte	0x1f
 3264 0309 23       		.byte	0x23
ARM GAS  C:\Users\hari\AppData\Local\Temp\ccc0gtQ0.s 			page 85


 3265 030a 20       		.uleb128 0x20
 3266 030b 25       		.byte	0x25
 3267 030c 21       		.byte	0x21
 3268 030d 9F       		.byte	0x9f
 3269 030e 00000000 		.4byte	0
 3270 0312 00000000 		.4byte	0
 3271              	.LLST20:
 3272 0316 1E000000 		.4byte	.LVL82
 3273 031a 2A000000 		.4byte	.LVL85
 3274 031e 0600     		.2byte	0x6
 3275 0320 74       		.byte	0x74
 3276 0321 00       		.sleb128 0
 3277 0322 09       		.byte	0x9
 3278 0323 F8       		.byte	0xf8
 3279 0324 24       		.byte	0x24
 3280 0325 9F       		.byte	0x9f
 3281 0326 00000000 		.4byte	0
 3282 032a 00000000 		.4byte	0
 3283              	.LLST21:
 3284 032e 1E000000 		.4byte	.LVL82
 3285 0332 2A000000 		.4byte	.LVL85
 3286 0336 0600     		.2byte	0x6
 3287 0338 74       		.byte	0x74
 3288 0339 00       		.sleb128 0
 3289 033a 09       		.byte	0x9
 3290 033b FC       		.byte	0xfc
 3291 033c 24       		.byte	0x24
 3292 033d 9F       		.byte	0x9f
 3293 033e 00000000 		.4byte	0
 3294 0342 00000000 		.4byte	0
 3295              	.LLST22:
 3296 0346 22000000 		.4byte	.LVL83
 3297 034a 3E000000 		.4byte	.LVL89
 3298 034e 0100     		.2byte	0x1
 3299 0350 52       		.byte	0x52
 3300 0351 00000000 		.4byte	0
 3301 0355 00000000 		.4byte	0
 3302              	.LLST23:
 3303 0359 3A000000 		.4byte	.LVL88
 3304 035d 3E000000 		.4byte	.LVL89
 3305 0361 0200     		.2byte	0x2
 3306 0363 30       		.byte	0x30
 3307 0364 9F       		.byte	0x9f
 3308 0365 40000000 		.4byte	.LVL90
 3309 0369 48000000 		.4byte	.LFE12
 3310 036d 0100     		.2byte	0x1
 3311 036f 50       		.byte	0x50
 3312 0370 00000000 		.4byte	0
 3313 0374 00000000 		.4byte	0
 3314              	.LLST24:
 3315 0378 00000000 		.4byte	.LVL91
 3316 037c 18000000 		.4byte	.LVL93
 3317 0380 0100     		.2byte	0x1
 3318 0382 50       		.byte	0x50
 3319 0383 18000000 		.4byte	.LVL93
 3320 0387 7A000000 		.4byte	.LVL108
 3321 038b 0400     		.2byte	0x4
ARM GAS  C:\Users\hari\AppData\Local\Temp\ccc0gtQ0.s 			page 86


 3322 038d F3       		.byte	0xf3
 3323 038e 01       		.uleb128 0x1
 3324 038f 50       		.byte	0x50
 3325 0390 9F       		.byte	0x9f
 3326 0391 7A000000 		.4byte	.LVL108
 3327 0395 7C000000 		.4byte	.LVL109
 3328 0399 0100     		.2byte	0x1
 3329 039b 50       		.byte	0x50
 3330 039c 7C000000 		.4byte	.LVL109
 3331 03a0 88000000 		.4byte	.LFE9
 3332 03a4 0400     		.2byte	0x4
 3333 03a6 F3       		.byte	0xf3
 3334 03a7 01       		.uleb128 0x1
 3335 03a8 50       		.byte	0x50
 3336 03a9 9F       		.byte	0x9f
 3337 03aa 00000000 		.4byte	0
 3338 03ae 00000000 		.4byte	0
 3339              	.LLST25:
 3340 03b2 74000000 		.4byte	.LVL107
 3341 03b6 7A000000 		.4byte	.LVL108
 3342 03ba 0200     		.2byte	0x2
 3343 03bc 30       		.byte	0x30
 3344 03bd 9F       		.byte	0x9f
 3345 03be 00000000 		.4byte	0
 3346 03c2 00000000 		.4byte	0
 3347              	.LLST26:
 3348 03c6 12000000 		.4byte	.LVL92
 3349 03ca 7A000000 		.4byte	.LVL108
 3350 03ce 0100     		.2byte	0x1
 3351 03d0 56       		.byte	0x56
 3352 03d1 00000000 		.4byte	0
 3353 03d5 00000000 		.4byte	0
 3354              	.LLST27:
 3355 03d9 1E000000 		.4byte	.LVL94
 3356 03dd 26000000 		.4byte	.LVL96
 3357 03e1 0100     		.2byte	0x1
 3358 03e3 54       		.byte	0x54
 3359 03e4 2C000000 		.4byte	.LVL97
 3360 03e8 44000000 		.4byte	.LVL102
 3361 03ec 0100     		.2byte	0x1
 3362 03ee 54       		.byte	0x54
 3363 03ef 00000000 		.4byte	0
 3364 03f3 00000000 		.4byte	0
 3365              	.LLST28:
 3366 03f7 1E000000 		.4byte	.LVL94
 3367 03fb 22000000 		.4byte	.LVL95
 3368 03ff 0200     		.2byte	0x2
 3369 0401 30       		.byte	0x30
 3370 0402 9F       		.byte	0x9f
 3371 0403 22000000 		.4byte	.LVL95
 3372 0407 36000000 		.4byte	.LVL99
 3373 040b 0100     		.2byte	0x1
 3374 040d 55       		.byte	0x55
 3375 040e 38000000 		.4byte	.LVL100
 3376 0412 44000000 		.4byte	.LVL102
 3377 0416 0100     		.2byte	0x1
 3378 0418 55       		.byte	0x55
ARM GAS  C:\Users\hari\AppData\Local\Temp\ccc0gtQ0.s 			page 87


 3379 0419 00000000 		.4byte	0
 3380 041d 00000000 		.4byte	0
 3381              	.LLST29:
 3382 0421 12000000 		.4byte	.LVL92
 3383 0425 18000000 		.4byte	.LVL93
 3384 0429 0200     		.2byte	0x2
 3385 042b 30       		.byte	0x30
 3386 042c 9F       		.byte	0x9f
 3387 042d 18000000 		.4byte	.LVL93
 3388 0431 40000000 		.4byte	.LVL101
 3389 0435 0100     		.2byte	0x1
 3390 0437 58       		.byte	0x58
 3391 0438 44000000 		.4byte	.LVL102
 3392 043c 4E000000 		.4byte	.LVL103
 3393 0440 0100     		.2byte	0x1
 3394 0442 58       		.byte	0x58
 3395 0443 4E000000 		.4byte	.LVL103
 3396 0447 5E000000 		.4byte	.LVL105
 3397 044b 0100     		.2byte	0x1
 3398 044d 54       		.byte	0x54
 3399 044e 60000000 		.4byte	.LVL106
 3400 0452 7A000000 		.4byte	.LVL108
 3401 0456 0100     		.2byte	0x1
 3402 0458 54       		.byte	0x54
 3403 0459 00000000 		.4byte	0
 3404 045d 00000000 		.4byte	0
 3405              	.LLST30:
 3406 0461 00000000 		.4byte	.LVL110
 3407 0465 04000000 		.4byte	.LVL111
 3408 0469 0200     		.2byte	0x2
 3409 046b 30       		.byte	0x30
 3410 046c 9F       		.byte	0x9f
 3411 046d 04000000 		.4byte	.LVL111
 3412 0471 0E000000 		.4byte	.LVL112
 3413 0475 0100     		.2byte	0x1
 3414 0477 53       		.byte	0x53
 3415 0478 10000000 		.4byte	.LVL113
 3416 047c 1A000000 		.4byte	.LVL114
 3417 0480 0100     		.2byte	0x1
 3418 0482 53       		.byte	0x53
 3419 0483 1A000000 		.4byte	.LVL114
 3420 0487 28000000 		.4byte	.LVL116
 3421 048b 0100     		.2byte	0x1
 3422 048d 54       		.byte	0x54
 3423 048e 2A000000 		.4byte	.LVL117
 3424 0492 3E000000 		.4byte	.LVL120
 3425 0496 0100     		.2byte	0x1
 3426 0498 54       		.byte	0x54
 3427 0499 00000000 		.4byte	0
 3428 049d 00000000 		.4byte	0
 3429              	.LLST31:
 3430 04a1 34000000 		.4byte	.LVL118
 3431 04a5 3B000000 		.4byte	.LVL119-1
 3432 04a9 0100     		.2byte	0x1
 3433 04ab 50       		.byte	0x50
 3434 04ac 00000000 		.4byte	0
 3435 04b0 00000000 		.4byte	0
ARM GAS  C:\Users\hari\AppData\Local\Temp\ccc0gtQ0.s 			page 88


 3436              		.section	.debug_aranges,"",%progbits
 3437 0000 8C000000 		.4byte	0x8c
 3438 0004 0200     		.2byte	0x2
 3439 0006 00000000 		.4byte	.Ldebug_info0
 3440 000a 04       		.byte	0x4
 3441 000b 00       		.byte	0
 3442 000c 0000     		.2byte	0
 3443 000e 0000     		.2byte	0
 3444 0010 00000000 		.4byte	.LFB14
 3445 0014 24000000 		.4byte	.LFE14-.LFB14
 3446 0018 00000000 		.4byte	.LFB2
 3447 001c 3C010000 		.4byte	.LFE2-.LFB2
 3448 0020 00000000 		.4byte	.LFB3
 3449 0024 50000000 		.4byte	.LFE3-.LFB3
 3450 0028 00000000 		.4byte	.LFB1
 3451 002c 64000000 		.4byte	.LFE1-.LFB1
 3452 0030 00000000 		.4byte	.LFB5
 3453 0034 54000000 		.4byte	.LFE5-.LFB5
 3454 0038 00000000 		.4byte	.LFB6
 3455 003c 10000000 		.4byte	.LFE6-.LFB6
 3456 0040 00000000 		.4byte	.LFB7
 3457 0044 10000000 		.4byte	.LFE7-.LFB7
 3458 0048 00000000 		.4byte	.LFB8
 3459 004c 14000000 		.4byte	.LFE8-.LFB8
 3460 0050 00000000 		.4byte	.LFB10
 3461 0054 10000000 		.4byte	.LFE10-.LFB10
 3462 0058 00000000 		.4byte	.LFB13
 3463 005c 28000000 		.4byte	.LFE13-.LFB13
 3464 0060 00000000 		.4byte	.LFB12
 3465 0064 48000000 		.4byte	.LFE12-.LFB12
 3466 0068 00000000 		.4byte	.LFB9
 3467 006c 88000000 		.4byte	.LFE9-.LFB9
 3468 0070 00000000 		.4byte	.LFB11
 3469 0074 4C000000 		.4byte	.LFE11-.LFB11
 3470 0078 00000000 		.4byte	.LFB0
 3471 007c 80000000 		.4byte	.LFE0-.LFB0
 3472 0080 00000000 		.4byte	.LFB4
 3473 0084 20000000 		.4byte	.LFE4-.LFB4
 3474 0088 00000000 		.4byte	0
 3475 008c 00000000 		.4byte	0
 3476              		.section	.debug_ranges,"",%progbits
 3477              	.Ldebug_ranges0:
 3478 0000 00000000 		.4byte	.LFB14
 3479 0004 24000000 		.4byte	.LFE14
 3480 0008 00000000 		.4byte	.LFB2
 3481 000c 3C010000 		.4byte	.LFE2
 3482 0010 00000000 		.4byte	.LFB3
 3483 0014 50000000 		.4byte	.LFE3
 3484 0018 00000000 		.4byte	.LFB1
 3485 001c 64000000 		.4byte	.LFE1
 3486 0020 00000000 		.4byte	.LFB5
 3487 0024 54000000 		.4byte	.LFE5
 3488 0028 00000000 		.4byte	.LFB6
 3489 002c 10000000 		.4byte	.LFE6
 3490 0030 00000000 		.4byte	.LFB7
 3491 0034 10000000 		.4byte	.LFE7
 3492 0038 00000000 		.4byte	.LFB8
ARM GAS  C:\Users\hari\AppData\Local\Temp\ccc0gtQ0.s 			page 89


 3493 003c 14000000 		.4byte	.LFE8
 3494 0040 00000000 		.4byte	.LFB10
 3495 0044 10000000 		.4byte	.LFE10
 3496 0048 00000000 		.4byte	.LFB13
 3497 004c 28000000 		.4byte	.LFE13
 3498 0050 00000000 		.4byte	.LFB12
 3499 0054 48000000 		.4byte	.LFE12
 3500 0058 00000000 		.4byte	.LFB9
 3501 005c 88000000 		.4byte	.LFE9
 3502 0060 00000000 		.4byte	.LFB11
 3503 0064 4C000000 		.4byte	.LFE11
 3504 0068 00000000 		.4byte	.LFB0
 3505 006c 80000000 		.4byte	.LFE0
 3506 0070 00000000 		.4byte	.LFB4
 3507 0074 20000000 		.4byte	.LFE4
 3508 0078 00000000 		.4byte	0
 3509 007c 00000000 		.4byte	0
 3510              		.section	.debug_line,"",%progbits
 3511              	.Ldebug_line0:
 3512 0000 4D030000 		.section	.debug_str,"MS",%progbits,1
 3512      0200D600 
 3512      00000201 
 3512      FB0E0D00 
 3512      01010101 
 3513              	.LASF10:
 3514 0000 75696E74 		.ascii	"uint16\000"
 3514      313600
 3515              	.LASF67:
 3516 0007 43794578 		.ascii	"CyExitCriticalSection\000"
 3516      69744372 
 3516      69746963 
 3516      616C5365 
 3516      6374696F 
 3517              	.LASF76:
 3518 001d 4C43445F 		.ascii	"LCD_Seg_1_ReadInvertState\000"
 3518      5365675F 
 3518      315F5265 
 3518      6164496E 
 3518      76657274 
 3519              	.LASF64:
 3520 0037 4379446D 		.ascii	"CyDmaTdAllocate\000"
 3520      61546441 
 3520      6C6C6F63 
 3520      61746500 
 3521              	.LASF26:
 3522 0047 64737441 		.ascii	"dstAddr\000"
 3522      64647200 
 3523              	.LASF59:
 3524 004f 4379446D 		.ascii	"CyDmaChEnable\000"
 3524      61436845 
 3524      6E61626C 
 3524      6500
 3525              	.LASF34:
 3526 005d 4C43445F 		.ascii	"LCD_Seg_1_SetBias\000"
 3526      5365675F 
 3526      315F5365 
 3526      74426961 
ARM GAS  C:\Users\hari\AppData\Local\Temp\ccc0gtQ0.s 			page 90


 3526      7300
 3527              	.LASF7:
 3528 006f 6C6F6E67 		.ascii	"long long unsigned int\000"
 3528      206C6F6E 
 3528      6720756E 
 3528      7369676E 
 3528      65642069 
 3529              	.LASF63:
 3530 0086 4C43445F 		.ascii	"LCD_Seg_1_Frame_Dma_DmaRelease\000"
 3530      5365675F 
 3530      315F4672 
 3530      616D655F 
 3530      446D615F 
 3531              	.LASF56:
 3532 00a5 4379446D 		.ascii	"CyDmaTdSetConfiguration\000"
 3532      61546453 
 3532      6574436F 
 3532      6E666967 
 3532      75726174 
 3533              	.LASF43:
 3534 00bd 4C43445F 		.ascii	"LCD_Seg_1_Stop\000"
 3534      5365675F 
 3534      315F5374 
 3534      6F7000
 3535              	.LASF6:
 3536 00cc 6C6F6E67 		.ascii	"long long int\000"
 3536      206C6F6E 
 3536      6720696E 
 3536      7400
 3537              	.LASF0:
 3538 00da 7369676E 		.ascii	"signed char\000"
 3538      65642063 
 3538      68617200 
 3539              	.LASF35:
 3540 00e6 62696173 		.ascii	"biasLevel\000"
 3540      4C657665 
 3540      6C00
 3541              	.LASF49:
 3542 00f0 4C43445F 		.ascii	"LCD_Seg_1_buffer\000"
 3542      5365675F 
 3542      315F6275 
 3542      66666572 
 3542      00
 3543              	.LASF30:
 3544 0101 696E7465 		.ascii	"interruptState\000"
 3544      72727570 
 3544      74537461 
 3544      746500
 3545              	.LASF32:
 3546 0110 4C43445F 		.ascii	"LCD_Seg_1_DisableInt\000"
 3546      5365675F 
 3546      315F4469 
 3546      7361626C 
 3546      65496E74 
 3547              	.LASF4:
 3548 0125 6C6F6E67 		.ascii	"long int\000"
 3548      20696E74 
ARM GAS  C:\Users\hari\AppData\Local\Temp\ccc0gtQ0.s 			page 91


 3548      00
 3549              	.LASF9:
 3550 012e 75696E74 		.ascii	"uint8\000"
 3550      3800
 3551              	.LASF13:
 3552 0134 646F7562 		.ascii	"double\000"
 3552      6C6500
 3553              	.LASF72:
 3554 013b 2E5C4765 		.ascii	".\\Generated_Source\\PSoC5\\LCD_Seg_1.c\000"
 3554      6E657261 
 3554      7465645F 
 3554      536F7572 
 3554      63655C50 
 3555              	.LASF11:
 3556 0160 75696E74 		.ascii	"uint32\000"
 3556      333200
 3557              	.LASF25:
 3558 0167 73726341 		.ascii	"srcAddr\000"
 3558      64647200 
 3559              	.LASF69:
 3560 016f 4C43445F 		.ascii	"LCD_Seg_1_Int_Clock_Stop\000"
 3560      5365675F 
 3560      315F496E 
 3560      745F436C 
 3560      6F636B5F 
 3561              	.LASF23:
 3562 0188 6D61736B 		.ascii	"mask\000"
 3562      00
 3563              	.LASF36:
 3564 018d 4C43445F 		.ascii	"LCD_Seg_1_ReadPixel\000"
 3564      5365675F 
 3564      315F5265 
 3564      61645069 
 3564      78656C00 
 3565              	.LASF66:
 3566 01a1 4379446D 		.ascii	"CyDmaTdFree\000"
 3566      61546446 
 3566      72656500 
 3567              	.LASF39:
 3568 01ad 706F7274 		.ascii	"port\000"
 3568      00
 3569              	.LASF22:
 3570 01b2 76616C75 		.ascii	"value\000"
 3570      6500
 3571              	.LASF47:
 3572 01b8 4C43445F 		.ascii	"LCD_Seg_1_Start\000"
 3572      5365675F 
 3572      315F5374 
 3572      61727400 
 3573              	.LASF8:
 3574 01c8 756E7369 		.ascii	"unsigned int\000"
 3574      676E6564 
 3574      20696E74 
 3574      00
 3575              	.LASF5:
 3576 01d5 6C6F6E67 		.ascii	"long unsigned int\000"
 3576      20756E73 
ARM GAS  C:\Users\hari\AppData\Local\Temp\ccc0gtQ0.s 			page 92


 3576      69676E65 
 3576      6420696E 
 3576      7400
 3577              	.LASF44:
 3578 01e7 4C43445F 		.ascii	"LCD_Seg_1_ClearDisplay\000"
 3578      5365675F 
 3578      315F436C 
 3578      65617244 
 3578      6973706C 
 3579              	.LASF77:
 3580 01fe 4C43445F 		.ascii	"LCD_Seg_1_initVar\000"
 3580      5365675F 
 3580      315F696E 
 3580      69745661 
 3580      7200
 3581              	.LASF38:
 3582 0210 70697865 		.ascii	"pixelState\000"
 3582      6C537461 
 3582      746500
 3583              	.LASF65:
 3584 021b 4379456E 		.ascii	"CyEnterCriticalSection\000"
 3584      74657243 
 3584      72697469 
 3584      63616C53 
 3584      65637469 
 3585              	.LASF74:
 3586 0232 4C43445F 		.ascii	"LCD_Seg_1_DMA_TD_PROTO_ENTRY\000"
 3586      5365675F 
 3586      315F444D 
 3586      415F5444 
 3586      5F50524F 
 3587              	.LASF3:
 3588 024f 73686F72 		.ascii	"short unsigned int\000"
 3588      7420756E 
 3588      7369676E 
 3588      65642069 
 3588      6E7400
 3589              	.LASF73:
 3590 0262 453A5C70 		.ascii	"E:\\psoc\\LEDMatrix_Video\\LEDMatrix_Video.cydsn\000"
 3590      736F635C 
 3590      4C45444D 
 3590      61747269 
 3590      785F5669 
 3591              	.LASF68:
 3592 0290 4C43445F 		.ascii	"LCD_Seg_1_Int_Clock_Start\000"
 3592      5365675F 
 3592      315F496E 
 3592      745F436C 
 3592      6F636B5F 
 3593              	.LASF70:
 3594 02aa 4379496E 		.ascii	"CyIntSetVector\000"
 3594      74536574 
 3594      56656374 
 3594      6F7200
 3595              	.LASF31:
 3596 02b9 4C43445F 		.ascii	"LCD_Seg_1_EnableInt\000"
 3596      5365675F 
ARM GAS  C:\Users\hari\AppData\Local\Temp\ccc0gtQ0.s 			page 93


 3596      315F456E 
 3596      61626C65 
 3596      496E7400 
 3597              	.LASF17:
 3598 02cd 72656733 		.ascii	"reg32\000"
 3598      3200
 3599              	.LASF55:
 3600 02d3 4C43445F 		.ascii	"LCD_Seg_1_Frame_Dma_DmaInitialize\000"
 3600      5365675F 
 3600      315F4672 
 3600      616D655F 
 3600      446D615F 
 3601              	.LASF29:
 3602 02f5 4C43445F 		.ascii	"LCD_Seg_1_DmaDispose\000"
 3602      5365675F 
 3602      315F446D 
 3602      61446973 
 3602      706F7365 
 3603              	.LASF19:
 3604 030a 73697A65 		.ascii	"sizetype\000"
 3604      74797065 
 3604      00
 3605              	.LASF37:
 3606 0313 70697865 		.ascii	"pixelNumber\000"
 3606      6C4E756D 
 3606      62657200 
 3607              	.LASF57:
 3608 031f 4379446D 		.ascii	"CyDmaTdSetAddress\000"
 3608      61546453 
 3608      65744164 
 3608      64726573 
 3608      7300
 3609              	.LASF46:
 3610 0331 4C43445F 		.ascii	"LCD_Seg_1_Init\000"
 3610      5365675F 
 3610      315F496E 
 3610      697400
 3611              	.LASF50:
 3612 0340 4C43445F 		.ascii	"LCD_Seg_1_lcdTd\000"
 3612      5365675F 
 3612      315F6C63 
 3612      64546400 
 3613              	.LASF78:
 3614 0350 4379496E 		.ascii	"CyIntSetPriority\000"
 3614      74536574 
 3614      5072696F 
 3614      72697479 
 3614      00
 3615              	.LASF28:
 3616 0361 4C43445F 		.ascii	"LCD_Seg_1_WriteControlReg\000"
 3616      5365675F 
 3616      315F5772 
 3616      69746543 
 3616      6F6E7472 
 3617              	.LASF12:
 3618 037b 666C6F61 		.ascii	"float\000"
 3618      7400
ARM GAS  C:\Users\hari\AppData\Local\Temp\ccc0gtQ0.s 			page 94


 3619              	.LASF16:
 3620 0381 72656738 		.ascii	"reg8\000"
 3620      00
 3621              	.LASF1:
 3622 0386 756E7369 		.ascii	"unsigned char\000"
 3622      676E6564 
 3622      20636861 
 3622      7200
 3623              	.LASF27:
 3624 0394 4C43445F 		.ascii	"LCD_Seg_1_SegLcdPort_DMA_TD_PROTO_BLOCK\000"
 3624      5365675F 
 3624      315F5365 
 3624      674C6364 
 3624      506F7274 
 3625              	.LASF51:
 3626 03bc 4C43445F 		.ascii	"LCD_Seg_1_lcdChannel\000"
 3626      5365675F 
 3626      315F6C63 
 3626      64436861 
 3626      6E6E656C 
 3627              	.LASF2:
 3628 03d1 73686F72 		.ascii	"short int\000"
 3628      7420696E 
 3628      7400
 3629              	.LASF33:
 3630 03db 4C43445F 		.ascii	"LCD_Seg_1_Enable\000"
 3630      5365675F 
 3630      315F456E 
 3630      61626C65 
 3630      00
 3631              	.LASF75:
 3632 03ec 4C43445F 		.ascii	"LCD_Seg_1_DmaConfigure\000"
 3632      5365675F 
 3632      315F446D 
 3632      61436F6E 
 3632      66696775 
 3633              	.LASF40:
 3634 0403 4C43445F 		.ascii	"LCD_Seg_1_WritePixel\000"
 3634      5365675F 
 3634      315F5772 
 3634      69746550 
 3634      6978656C 
 3635              	.LASF41:
 3636 0418 4C43445F 		.ascii	"LCD_Seg_1_WriteInvertState\000"
 3636      5365675F 
 3636      315F5772 
 3636      69746549 
 3636      6E766572 
 3637              	.LASF21:
 3638 0433 6C656E67 		.ascii	"length\000"
 3638      746800
 3639              	.LASF14:
 3640 043a 63686172 		.ascii	"char\000"
 3640      00
 3641              	.LASF18:
 3642 043f 63796973 		.ascii	"cyisraddress\000"
 3642      72616464 
ARM GAS  C:\Users\hari\AppData\Local\Temp\ccc0gtQ0.s 			page 95


 3642      72657373 
 3642      00
 3643              	.LASF20:
 3644 044c 6F666673 		.ascii	"offset\000"
 3644      657400
 3645              	.LASF42:
 3646 0453 696E7665 		.ascii	"invertState\000"
 3646      72745374 
 3646      61746500 
 3647              	.LASF48:
 3648 045f 4C43445F 		.ascii	"LCD_Seg_1_frameChannel\000"
 3648      5365675F 
 3648      315F6672 
 3648      616D6543 
 3648      68616E6E 
 3649              	.LASF45:
 3650 0476 64697370 		.ascii	"dispState\000"
 3650      53746174 
 3650      6500
 3651              	.LASF60:
 3652 0480 4C43445F 		.ascii	"LCD_Seg_1_Lcd_Dma_DmaInitialize\000"
 3652      5365675F 
 3652      315F4C63 
 3652      645F446D 
 3652      615F446D 
 3653              	.LASF52:
 3654 04a0 4C43445F 		.ascii	"LCD_Seg_1_commons\000"
 3654      5365675F 
 3654      315F636F 
 3654      6D6D6F6E 
 3654      7300
 3655              	.LASF24:
 3656 04b2 73746174 		.ascii	"status\000"
 3656      757300
 3657              	.LASF71:
 3658 04b9 474E5520 		.ascii	"GNU C 4.9.3 20150303 (release) [ARM/embedded-4_9-br"
 3658      4320342E 
 3658      392E3320 
 3658      32303135 
 3658      30333033 
 3659 04ec 616E6368 		.ascii	"anch revision 221220] -mcpu=cortex-m3 -mthumb -g -O"
 3659      20726576 
 3659      6973696F 
 3659      6E203232 
 3659      31323230 
 3660 051f 67202D66 		.ascii	"g -ffunction-sections -ffat-lto-objects\000"
 3660      66756E63 
 3660      74696F6E 
 3660      2D736563 
 3660      74696F6E 
 3661              	.LASF62:
 3662 0547 4C43445F 		.ascii	"LCD_Seg_1_Lcd_Dma_DmaRelease\000"
 3662      5365675F 
 3662      315F4C63 
 3662      645F446D 
 3662      615F446D 
 3663              	.LASF54:
ARM GAS  C:\Users\hari\AppData\Local\Temp\ccc0gtQ0.s 			page 96


 3664 0564 4C43445F 		.ascii	"LCD_Seg_1_frameTd\000"
 3664      5365675F 
 3664      315F6672 
 3664      616D6554 
 3664      6400
 3665              	.LASF58:
 3666 0576 4379446D 		.ascii	"CyDmaChSetInitialTd\000"
 3666      61436853 
 3666      6574496E 
 3666      69746961 
 3666      6C546400 
 3667              	.LASF15:
 3668 058a 63797374 		.ascii	"cystatus\000"
 3668      61747573 
 3668      00
 3669              	.LASF53:
 3670 0593 4C43445F 		.ascii	"LCD_Seg_1_frameTx\000"
 3670      5365675F 
 3670      315F6672 
 3670      616D6554 
 3670      7800
 3671              	.LASF61:
 3672 05a5 4379446D 		.ascii	"CyDmaChFree\000"
 3672      61436846 
 3672      72656500 
 3673              		.ident	"GCC: (GNU Tools for ARM Embedded Processors) 4.9.3 20150303 (release) [ARM/embedded-4_9-br
