ARM GAS  C:\Users\hari\AppData\Local\Temp\ccCWWAak.s 			page 1


   1              		.syntax unified
   2              		.cpu cortex-m3
   3              		.fpu softvfp
   4              		.eabi_attribute 20, 1
   5              		.eabi_attribute 21, 1
   6              		.eabi_attribute 23, 3
   7              		.eabi_attribute 24, 1
   8              		.eabi_attribute 25, 1
   9              		.eabi_attribute 26, 1
  10              		.eabi_attribute 30, 6
  11              		.eabi_attribute 34, 1
  12              		.eabi_attribute 18, 4
  13              		.thumb
  14              		.file	"main.c"
  15              		.text
  16              	.Ltext0:
  17              		.cfi_sections	.debug_frame
  18              		.section	.rodata
  19              		.align	2
  20              	.LC0:
  21 0000 426C7565 		.ascii	"Bluetooth connected\000"
  21      746F6F74 
  21      6820636F 
  21      6E6E6563 
  21      74656400 
  22              		.align	2
  23              	.LC1:
  24 0014 53616D70 		.ascii	"Sample: %d mV\015\012\000"
  24      6C653A20 
  24      2564206D 
  24      560D0A00 
  25              		.align	2
  26              	.LC2:
  27 0024 456D756C 		.ascii	"Emulated Data: %x \015\012\000"
  27      61746564 
  27      20446174 
  27      613A2025 
  27      78200D0A 
  28 0039 000000   		.section	.text.main,"ax",%progbits
  29              		.align	2
  30              		.global	main
  31              		.thumb
  32              		.thumb_func
  33              		.type	main, %function
  34              	main:
  35              	.LFB63:
  36              		.file 1 ".\\main.c"
   1:.\main.c      **** /******************************************************************************
   2:.\main.c      **** * Project Name		: CE95277 ADC and UART
   3:.\main.c      **** * File Name			: main.c
   4:.\main.c      **** * Version 			: **
   5:.\main.c      **** * Device Used		: CY8C5888LTI-LP097
   6:.\main.c      **** * Software Used		: PSoC Creator 3.1 SP2
   7:.\main.c      **** * Compiler    		: ARM GCC 4.8.4, ARM RVDS Generic, ARM MDK Generic
   8:.\main.c      **** * Related Hardware	: CY8CKIT059 PSoC 5 LP Prototyping Kit 
   9:.\main.c      **** * Owner				: KLMZ
  10:.\main.c      **** *
ARM GAS  C:\Users\hari\AppData\Local\Temp\ccCWWAak.s 			page 2


  11:.\main.c      **** ********************************************************************************
  12:.\main.c      **** * Copyright (2015), Cypress Semiconductor Corporation. All Rights Reserved.
  13:.\main.c      **** ********************************************************************************
  14:.\main.c      **** * This software is owned by Cypress Semiconductor Corporation (Cypress)
  15:.\main.c      **** * and is protected by and subject to worldwide patent protection (United
  16:.\main.c      **** * States and foreign), United States copyright laws and international treaty
  17:.\main.c      **** * provisions. Cypress hereby grants to licensee a personal, non-exclusive,
  18:.\main.c      **** * non-transferable license to copy, use, modify, create derivative works of,
  19:.\main.c      **** * and compile the Cypress Source Code and derivative works for the sole
  20:.\main.c      **** * purpose of creating custom software in support of licensee product to be
  21:.\main.c      **** * used only in conjunction with a Cypress integrated circuit as specified in
  22:.\main.c      **** * the applicable agreement. Any reproduction, modification, translation,
  23:.\main.c      **** * compilation, or representation of this software except as specified above 
  24:.\main.c      **** * is prohibited without the express written permission of Cypress.
  25:.\main.c      **** *
  26:.\main.c      **** * Disclaimer: CYPRESS MAKES NO WARRANTY OF ANY KIND, EXPRESS OR IMPLIED, WITH 
  27:.\main.c      **** * REGARD TO THIS MATERIAL, INCLUDING, BUT NOT LIMITED TO, THE IMPLIED 
  28:.\main.c      **** * WARRANTIES OF MERCHANTABILITY AND FITNESS FOR A PARTICULAR PURPOSE.
  29:.\main.c      **** * Cypress reserves the right to make changes without further notice to the 
  30:.\main.c      **** * materials described herein. Cypress does not assume any liability arising out 
  31:.\main.c      **** * of the application or use of any product or circuit described herein. Cypress 
  32:.\main.c      **** * does not authorize its products for use as critical components in life-support 
  33:.\main.c      **** * systems where a malfunction or failure may reasonably be expected to result in 
  34:.\main.c      **** * significant injury to the user. The inclusion of Cypress' product in a life-
  35:.\main.c      **** * support systems application implies that the manufacturer assumes all risk of 
  36:.\main.c      **** * such use and in doing so indemnifies Cypress against all charges. 
  37:.\main.c      **** *
  38:.\main.c      **** * Use of this Software may be limited by and subject to the applicable Cypress
  39:.\main.c      **** * software license agreement. 
  40:.\main.c      **** *******************************************************************************/
  41:.\main.c      **** 
  42:.\main.c      **** #include <device.h>
  43:.\main.c      **** #include "stdio.h"
  44:.\main.c      **** 
  45:.\main.c      **** /* Project Defines */
  46:.\main.c      **** #define FALSE  0
  47:.\main.c      **** #define TRUE   1
  48:.\main.c      **** #define TRANSMIT_BUFFER_SIZE  16
  49:.\main.c      **** 
  50:.\main.c      **** 
  51:.\main.c      **** /*******************************************************************************
  52:.\main.c      **** * Function Name: main
  53:.\main.c      **** ********************************************************************************
  54:.\main.c      **** *
  55:.\main.c      **** * Summary:
  56:.\main.c      **** *  main() performs following functions:
  57:.\main.c      **** *  1: Starts the ADC and UART components.
  58:.\main.c      **** *  2: Checks for ADC end of conversion.  Stores latest result in output
  59:.\main.c      **** *     if conversion complete.
  60:.\main.c      **** *  3: Checks for UART input.
  61:.\main.c      **** *     On 'C' or 'c' received: transmits the last sample via the UART.
  62:.\main.c      **** *     On 'S' or 's' received: continuously transmits samples as they are completed.
  63:.\main.c      **** *     On 'X' or 'x' received: stops continuously transmitting samples.
  64:.\main.c      **** *     On 'E' or 'e' received: transmits a dummy byte of data.
  65:.\main.c      **** *
  66:.\main.c      **** * Parameters:
  67:.\main.c      **** *  None.
ARM GAS  C:\Users\hari\AppData\Local\Temp\ccCWWAak.s 			page 3


  68:.\main.c      **** *
  69:.\main.c      **** * Return:
  70:.\main.c      **** *  None.
  71:.\main.c      **** *
  72:.\main.c      **** *******************************************************************************/
  73:.\main.c      **** void main()
  74:.\main.c      **** {
  37              		.loc 1 74 0
  38              		.cfi_startproc
  39              		@ args = 0, pretend = 0, frame = 32
  40              		@ frame_needed = 1, uses_anonymous_args = 0
  41 0000 80B5     		push	{r7, lr}
  42              		.cfi_def_cfa_offset 8
  43              		.cfi_offset 7, -8
  44              		.cfi_offset 14, -4
  45 0002 88B0     		sub	sp, sp, #32
  46              		.cfi_def_cfa_offset 40
  47 0004 00AF     		add	r7, sp, #0
  48              		.cfi_def_cfa_register 7
  75:.\main.c      ****     /* Variable to store ADC result */
  76:.\main.c      ****     uint32 Output;
  77:.\main.c      ****     /* Variable to store UART received character */
  78:.\main.c      ****     uint8 Ch=0;
  49              		.loc 1 78 0
  50 0006 0023     		movs	r3, #0
  51 0008 FB76     		strb	r3, [r7, #27]
  79:.\main.c      ****     /* Variable used to send emulated data */
  80:.\main.c      ****     uint8 EmulatedData;
  81:.\main.c      ****     /* Flags used to store transmit data commands */
  82:.\main.c      ****     uint8 ContinuouslySendData;
  83:.\main.c      ****     uint8 SendSingleByte;
  84:.\main.c      ****     uint8 SendEmulatedData;
  85:.\main.c      ****     /* Transmit Buffer */
  86:.\main.c      ****     char TransmitBuffer[TRANSMIT_BUFFER_SIZE];
  87:.\main.c      ****     
  88:.\main.c      ****     /* Start the components */
  89:.\main.c      ****     ADC_DelSig_1_Start();
  52              		.loc 1 89 0
  53 000a FFF7FEFF 		bl	ADC_DelSig_1_Start
  90:.\main.c      ****     UART_1_Start();
  54              		.loc 1 90 0
  55 000e FFF7FEFF 		bl	UART_1_Start
  91:.\main.c      ****     
  92:.\main.c      ****     /* Initialize Variables */
  93:.\main.c      ****     ContinuouslySendData = FALSE;
  56              		.loc 1 93 0
  57 0012 0023     		movs	r3, #0
  58 0014 BB77     		strb	r3, [r7, #30]
  94:.\main.c      ****     SendSingleByte = FALSE;
  59              		.loc 1 94 0
  60 0016 0023     		movs	r3, #0
  61 0018 7B77     		strb	r3, [r7, #29]
  95:.\main.c      ****     SendEmulatedData = FALSE;
  62              		.loc 1 95 0
  63 001a 0023     		movs	r3, #0
  64 001c 3B77     		strb	r3, [r7, #28]
  96:.\main.c      ****     EmulatedData = 0;
ARM GAS  C:\Users\hari\AppData\Local\Temp\ccCWWAak.s 			page 4


  65              		.loc 1 96 0
  66 001e 0023     		movs	r3, #0
  67 0020 FB77     		strb	r3, [r7, #31]
  97:.\main.c      ****     
  98:.\main.c      ****     /* Start the ADC conversion */
  99:.\main.c      ****     ADC_DelSig_1_StartConvert();
  68              		.loc 1 99 0
  69 0022 FFF7FEFF 		bl	ADC_DelSig_1_StartConvert
 100:.\main.c      ****     
 101:.\main.c      ****     /* Send message to verify COM port is connected properly */
 102:.\main.c      ****     UART_1_PutString("Bluetooth connected");
  70              		.loc 1 102 0
  71 0026 7548     		ldr	r0, .L16
  72 0028 FFF7FEFF 		bl	UART_1_PutString
  73              	.L14:
 103:.\main.c      ****     
 104:.\main.c      ****     for(;;)
 105:.\main.c      ****     {        
 106:.\main.c      ****         /* Non-blocking call to get the latest data recieved  */
 107:.\main.c      ****         Ch = UART_1_GetChar();
  74              		.loc 1 107 0
  75 002c FFF7FEFF 		bl	UART_1_GetChar
  76 0030 0346     		mov	r3, r0
  77 0032 FB76     		strb	r3, [r7, #27]
 108:.\main.c      ****         
 109:.\main.c      ****         /* Set flags based on UART command */
 110:.\main.c      ****         switch(Ch)
  78              		.loc 1 110 0
  79 0034 FB7E     		ldrb	r3, [r7, #27]	@ zero_extendqisi2
  80 0036 303B     		subs	r3, r3, #48
  81 0038 482B     		cmp	r3, #72
  82 003a 00F2A980 		bhi	.L15
  83 003e 01A2     		adr	r2, .L4
  84 0040 52F823F0 		ldr	pc, [r2, r3, lsl #2]
  85              		.p2align 2
  86              	.L4:
  87 0044 69010000 		.word	.L3+1
  88 0048 71010000 		.word	.L5+1
  89 004c 91010000 		.word	.L15+1
  90 0050 91010000 		.word	.L15+1
  91 0054 91010000 		.word	.L15+1
  92 0058 91010000 		.word	.L15+1
  93 005c 91010000 		.word	.L15+1
  94 0060 91010000 		.word	.L15+1
  95 0064 91010000 		.word	.L15+1
  96 0068 91010000 		.word	.L15+1
  97 006c 91010000 		.word	.L15+1
  98 0070 91010000 		.word	.L15+1
  99 0074 91010000 		.word	.L15+1
 100 0078 91010000 		.word	.L15+1
 101 007c 91010000 		.word	.L15+1
 102 0080 91010000 		.word	.L15+1
 103 0084 91010000 		.word	.L15+1
 104 0088 91010000 		.word	.L15+1
 105 008c 91010000 		.word	.L15+1
 106 0090 79010000 		.word	.L6+1
 107 0094 91010000 		.word	.L15+1
ARM GAS  C:\Users\hari\AppData\Local\Temp\ccCWWAak.s 			page 5


 108 0098 8B010000 		.word	.L7+1
 109 009c 91010000 		.word	.L15+1
 110 00a0 91010000 		.word	.L15+1
 111 00a4 91010000 		.word	.L15+1
 112 00a8 91010000 		.word	.L15+1
 113 00ac 91010000 		.word	.L15+1
 114 00b0 91010000 		.word	.L15+1
 115 00b4 91010000 		.word	.L15+1
 116 00b8 91010000 		.word	.L15+1
 117 00bc 91010000 		.word	.L15+1
 118 00c0 91010000 		.word	.L15+1
 119 00c4 91010000 		.word	.L15+1
 120 00c8 91010000 		.word	.L15+1
 121 00cc 91010000 		.word	.L15+1
 122 00d0 7F010000 		.word	.L8+1
 123 00d4 91010000 		.word	.L15+1
 124 00d8 91010000 		.word	.L15+1
 125 00dc 91010000 		.word	.L15+1
 126 00e0 91010000 		.word	.L15+1
 127 00e4 85010000 		.word	.L9+1
 128 00e8 91010000 		.word	.L15+1
 129 00ec 91010000 		.word	.L15+1
 130 00f0 91010000 		.word	.L15+1
 131 00f4 91010000 		.word	.L15+1
 132 00f8 91010000 		.word	.L15+1
 133 00fc 91010000 		.word	.L15+1
 134 0100 91010000 		.word	.L15+1
 135 0104 91010000 		.word	.L15+1
 136 0108 91010000 		.word	.L15+1
 137 010c 91010000 		.word	.L15+1
 138 0110 79010000 		.word	.L6+1
 139 0114 91010000 		.word	.L15+1
 140 0118 8B010000 		.word	.L7+1
 141 011c 91010000 		.word	.L15+1
 142 0120 91010000 		.word	.L15+1
 143 0124 91010000 		.word	.L15+1
 144 0128 91010000 		.word	.L15+1
 145 012c 91010000 		.word	.L15+1
 146 0130 91010000 		.word	.L15+1
 147 0134 91010000 		.word	.L15+1
 148 0138 91010000 		.word	.L15+1
 149 013c 91010000 		.word	.L15+1
 150 0140 91010000 		.word	.L15+1
 151 0144 91010000 		.word	.L15+1
 152 0148 91010000 		.word	.L15+1
 153 014c 91010000 		.word	.L15+1
 154 0150 7F010000 		.word	.L8+1
 155 0154 91010000 		.word	.L15+1
 156 0158 91010000 		.word	.L15+1
 157 015c 91010000 		.word	.L15+1
 158 0160 91010000 		.word	.L15+1
 159 0164 85010000 		.word	.L9+1
 160              		.p2align 1
 161              	.L3:
 111:.\main.c      ****         {
 112:.\main.c      ****             case '0':
 113:.\main.c      ****                 led_Write(0);
ARM GAS  C:\Users\hari\AppData\Local\Temp\ccCWWAak.s 			page 6


 162              		.loc 1 113 0
 163 0168 0020     		movs	r0, #0
 164 016a FFF7FEFF 		bl	led_Write
 114:.\main.c      ****                 /* No new data was recieved */
 115:.\main.c      ****                 break;
 165              		.loc 1 115 0
 166 016e 10E0     		b	.L10
 167              	.L5:
 116:.\main.c      ****             case '1':
 117:.\main.c      ****                 led_Write(1);
 168              		.loc 1 117 0
 169 0170 0120     		movs	r0, #1
 170 0172 FFF7FEFF 		bl	led_Write
 118:.\main.c      ****                 break;
 171              		.loc 1 118 0
 172 0176 0CE0     		b	.L10
 173              	.L6:
 119:.\main.c      ****             case 'C':
 120:.\main.c      ****             case 'c':
 121:.\main.c      ****                 SendSingleByte = TRUE;
 174              		.loc 1 121 0
 175 0178 0123     		movs	r3, #1
 176 017a 7B77     		strb	r3, [r7, #29]
 122:.\main.c      ****                 break;
 177              		.loc 1 122 0
 178 017c 09E0     		b	.L10
 179              	.L8:
 123:.\main.c      ****             case 'S':
 124:.\main.c      ****             case 's':
 125:.\main.c      ****                 ContinuouslySendData = TRUE;
 180              		.loc 1 125 0
 181 017e 0123     		movs	r3, #1
 182 0180 BB77     		strb	r3, [r7, #30]
 126:.\main.c      ****                 break;
 183              		.loc 1 126 0
 184 0182 06E0     		b	.L10
 185              	.L9:
 127:.\main.c      ****             case 'X':
 128:.\main.c      ****             case 'x':
 129:.\main.c      ****                 ContinuouslySendData = FALSE;
 186              		.loc 1 129 0
 187 0184 0023     		movs	r3, #0
 188 0186 BB77     		strb	r3, [r7, #30]
 130:.\main.c      ****                 break;
 189              		.loc 1 130 0
 190 0188 03E0     		b	.L10
 191              	.L7:
 131:.\main.c      ****             case 'E':
 132:.\main.c      ****             case 'e':
 133:.\main.c      ****                 SendEmulatedData = TRUE;
 192              		.loc 1 133 0
 193 018a 0123     		movs	r3, #1
 194 018c 3B77     		strb	r3, [r7, #28]
 134:.\main.c      ****                 break;
 195              		.loc 1 134 0
 196 018e 00E0     		b	.L10
 197              	.L15:
ARM GAS  C:\Users\hari\AppData\Local\Temp\ccCWWAak.s 			page 7


 135:.\main.c      ****             default:
 136:.\main.c      ****                 /* Place error handling code here */
 137:.\main.c      ****                 break;    
 198              		.loc 1 137 0
 199 0190 00BF     		nop
 200              	.L10:
 138:.\main.c      ****         }
 139:.\main.c      ****         
 140:.\main.c      ****         /* Check to see if an ADC conversion has completed */
 141:.\main.c      ****         if(ADC_DelSig_1_IsEndConversion(ADC_DelSig_1_RETURN_STATUS))
 201              		.loc 1 141 0
 202 0192 0120     		movs	r0, #1
 203 0194 FFF7FEFF 		bl	ADC_DelSig_1_IsEndConversion
 204 0198 0346     		mov	r3, r0
 205 019a 002B     		cmp	r3, #0
 206 019c 2DD0     		beq	.L11
 142:.\main.c      ****         {
 143:.\main.c      ****             /* Use the GetResult16 API to get an 8 bit unsigned result in
 144:.\main.c      ****              * single ended mode.  The API CountsTo_mVolts is then used
 145:.\main.c      ****              * to convert the ADC counts into mV before transmitting via
 146:.\main.c      ****              * the UART.  See the datasheet API description for more
 147:.\main.c      ****              * details */
 148:.\main.c      ****             Output = ADC_DelSig_1_CountsTo_mVolts( ADC_DelSig_1_GetResult16());
 207              		.loc 1 148 0
 208 019e FFF7FEFF 		bl	ADC_DelSig_1_GetResult16
 209 01a2 0346     		mov	r3, r0
 210 01a4 1846     		mov	r0, r3
 211 01a6 FFF7FEFF 		bl	ADC_DelSig_1_CountsTo_mVolts
 212 01aa 0346     		mov	r3, r0
 213 01ac 7B61     		str	r3, [r7, #20]
 149:.\main.c      ****             
 150:.\main.c      ****             /* Send data based on last UART command */
 151:.\main.c      ****             if(SendSingleByte || ContinuouslySendData)
 214              		.loc 1 151 0
 215 01ae 7B7F     		ldrb	r3, [r7, #29]	@ zero_extendqisi2
 216 01b0 002B     		cmp	r3, #0
 217 01b2 02D1     		bne	.L12
 218              		.loc 1 151 0 is_stmt 0 discriminator 1
 219 01b4 BB7F     		ldrb	r3, [r7, #30]	@ zero_extendqisi2
 220 01b6 002B     		cmp	r3, #0
 221 01b8 0CD0     		beq	.L13
 222              	.L12:
 152:.\main.c      ****             {
 153:.\main.c      ****                 /* Format ADC result for transmition */
 154:.\main.c      ****                 sprintf(TransmitBuffer, "Sample: %d mV\r\n", Output);
 223              		.loc 1 154 0 is_stmt 1
 224 01ba 3B1D     		adds	r3, r7, #4
 225 01bc 1846     		mov	r0, r3
 226 01be 1049     		ldr	r1, .L16+4
 227 01c0 7A69     		ldr	r2, [r7, #20]
 228 01c2 FFF7FEFF 		bl	sprintf
 155:.\main.c      ****                 /* Send out the data */
 156:.\main.c      ****                 UART_1_PutString(TransmitBuffer);
 229              		.loc 1 156 0
 230 01c6 3B1D     		adds	r3, r7, #4
 231 01c8 1846     		mov	r0, r3
 232 01ca FFF7FEFF 		bl	UART_1_PutString
ARM GAS  C:\Users\hari\AppData\Local\Temp\ccCWWAak.s 			page 8


 157:.\main.c      ****                 /* Reset the send once flag */
 158:.\main.c      ****                 SendSingleByte = FALSE;
 233              		.loc 1 158 0
 234 01ce 0023     		movs	r3, #0
 235 01d0 7B77     		strb	r3, [r7, #29]
 236 01d2 12E0     		b	.L11
 237              	.L13:
 159:.\main.c      ****             }
 160:.\main.c      ****             else if(SendEmulatedData)
 238              		.loc 1 160 0
 239 01d4 3B7F     		ldrb	r3, [r7, #28]	@ zero_extendqisi2
 240 01d6 002B     		cmp	r3, #0
 241 01d8 0FD0     		beq	.L11
 161:.\main.c      ****             {
 162:.\main.c      ****                 /* Format ADC result for transmition */
 163:.\main.c      ****                 sprintf(TransmitBuffer, "Emulated Data: %x \r\n", EmulatedData);
 242              		.loc 1 163 0
 243 01da FB7F     		ldrb	r3, [r7, #31]	@ zero_extendqisi2
 244 01dc 3A1D     		adds	r2, r7, #4
 245 01de 1046     		mov	r0, r2
 246 01e0 0849     		ldr	r1, .L16+8
 247 01e2 1A46     		mov	r2, r3
 248 01e4 FFF7FEFF 		bl	sprintf
 164:.\main.c      ****                 /* Send out the data */
 165:.\main.c      ****                 UART_1_PutString(TransmitBuffer);
 249              		.loc 1 165 0
 250 01e8 3B1D     		adds	r3, r7, #4
 251 01ea 1846     		mov	r0, r3
 252 01ec FFF7FEFF 		bl	UART_1_PutString
 166:.\main.c      ****                 EmulatedData++;
 253              		.loc 1 166 0
 254 01f0 FB7F     		ldrb	r3, [r7, #31]	@ zero_extendqisi2
 255 01f2 0133     		adds	r3, r3, #1
 256 01f4 FB77     		strb	r3, [r7, #31]
 167:.\main.c      ****                 /* Reset the send once flag */
 168:.\main.c      ****                 SendEmulatedData = FALSE;   
 257              		.loc 1 168 0
 258 01f6 0023     		movs	r3, #0
 259 01f8 3B77     		strb	r3, [r7, #28]
 260              	.L11:
 169:.\main.c      ****             }
 170:.\main.c      ****         }
 171:.\main.c      ****     }
 261              		.loc 1 171 0
 262 01fa 17E7     		b	.L14
 263              	.L17:
 264              		.align	2
 265              	.L16:
 266 01fc 00000000 		.word	.LC0
 267 0200 14000000 		.word	.LC1
 268 0204 24000000 		.word	.LC2
 269              		.cfi_endproc
 270              	.LFE63:
 271              		.size	main, .-main
 272              		.text
 273              	.Letext0:
 274              		.file 2 "c:\\program files\\cypress\\psoc creator\\3.3\\psoc creator\\import\\gnu\\arm\\4.9.3\\arm
ARM GAS  C:\Users\hari\AppData\Local\Temp\ccCWWAak.s 			page 9


 275              		.file 3 "c:\\program files\\cypress\\psoc creator\\3.3\\psoc creator\\import\\gnu\\arm\\4.9.3\\arm
 276              		.file 4 "Generated_Source\\PSoC5/cytypes.h"
 277              		.file 5 "Generated_Source\\PSoC5/core_cm3.h"